
asignacion:     formato del fichero elf32-i386

Desensamblado de la sección .interp:

08048134 <.interp>:
 8048134:	2f                   	das    
 8048135:	6c                   	insb   (%dx),%es:(%edi)
 8048136:	69 62 2f 6c 64 2d 6c 	imul   $0x6c2d646c,0x2f(%edx),%esp
 804813d:	69 6e 75 78 2e 73 6f 	imul   $0x6f732e78,0x75(%esi),%ebp
 8048144:	2e 32 00             	xor    %cs:(%eax),%al
Desensamblado de la sección .note.ABI-tag:

08048148 <.note.ABI-tag>:
 8048148:	04 00                	add    $0x0,%al
 804814a:	00 00                	add    %al,(%eax)
 804814c:	10 00                	adc    %al,(%eax)
 804814e:	00 00                	add    %al,(%eax)
 8048150:	01 00                	add    %eax,(%eax)
 8048152:	00 00                	add    %al,(%eax)
 8048154:	47                   	inc    %edi
 8048155:	4e                   	dec    %esi
 8048156:	55                   	push   %ebp
 8048157:	00 00                	add    %al,(%eax)
 8048159:	00 00                	add    %al,(%eax)
 804815b:	00 02                	add    %al,(%edx)
 804815d:	00 00                	add    %al,(%eax)
 804815f:	00 02                	add    %al,(%edx)
 8048161:	00 00                	add    %al,(%eax)
 8048163:	00                   	.byte 0x0
 8048164:	05                   	.byte 0x5
 8048165:	00 00                	add    %al,(%eax)
	...
Desensamblado de la sección .hash:

08048168 <.hash>:
 8048168:	03 00                	add    (%eax),%eax
 804816a:	00 00                	add    %al,(%eax)
 804816c:	0f 00 00             	sldtl  (%eax)
 804816f:	00 0e                	add    %cl,(%esi)
 8048171:	00 00                	add    %al,(%eax)
 8048173:	00 09                	add    %cl,(%ecx)
 8048175:	00 00                	add    %al,(%eax)
 8048177:	00 0b                	add    %cl,(%ebx)
	...
 8048185:	00 00                	add    %al,(%eax)
 8048187:	00 01                	add    %al,(%ecx)
 8048189:	00 00                	add    %al,(%eax)
 804818b:	00 02                	add    %al,(%edx)
 804818d:	00 00                	add    %al,(%eax)
 804818f:	00 04 00             	add    %al,(%eax,%eax,1)
 8048192:	00 00                	add    %al,(%eax)
 8048194:	03 00                	add    (%eax),%eax
 8048196:	00 00                	add    %al,(%eax)
 8048198:	05 00 00 00 06       	add    $0x6000000,%eax
 804819d:	00 00                	add    %al,(%eax)
 804819f:	00 07                	add    %al,(%edi)
 80481a1:	00 00                	add    %al,(%eax)
 80481a3:	00 00                	add    %al,(%eax)
 80481a5:	00 00                	add    %al,(%eax)
 80481a7:	00 0a                	add    %cl,(%edx)
 80481a9:	00 00                	add    %al,(%eax)
 80481ab:	00 08                	add    %cl,(%eax)
 80481ad:	00 00                	add    %al,(%eax)
 80481af:	00 0c 00             	add    %cl,(%eax,%eax,1)
 80481b2:	00 00                	add    %al,(%eax)
 80481b4:	0d                   	.byte 0xd
 80481b5:	00 00                	add    %al,(%eax)
	...
Desensamblado de la sección .dynsym:

080481b8 <.dynsym>:
	...
 80481c8:	48                   	dec    %eax
 80481c9:	00 00                	add    %al,(%eax)
 80481cb:	00 74 88 04          	add    %dh,0x4(%eax,%ecx,4)
 80481cf:	08 04 00             	or     %al,(%eax,%eax,1)
 80481d2:	00 00                	add    %al,(%eax)
 80481d4:	21 00                	and    %eax,(%eax)
 80481d6:	0e                   	push   %cs
 80481d7:	00 51 01             	add    %dl,0x1(%ecx)
 80481da:	00 00                	add    %al,(%eax)
 80481dc:	70 9a                	jo     8048178 <_init-0x3fc>
 80481de:	04 08                	add    $0x8,%al
 80481e0:	8c 00                	movl   %es,(%eax)
 80481e2:	00 00                	add    %al,(%eax)
 80481e4:	11 00                	adc    %eax,(%eax)
 80481e6:	17                   	pop    %ss
 80481e7:	00 84 00 00 00 9c 85 	add    %al,0x859c0000(%eax,%eax,1)
 80481ee:	04 08                	add    $0x8,%al
 80481f0:	3b 01                	cmp    (%ecx),%eax
 80481f2:	00 00                	add    %al,(%eax)
 80481f4:	12 00                	adc    (%eax),%al
 80481f6:	00 00                	add    %al,(%eax)
 80481f8:	a0 01 00 00 ac       	mov    0xac000001,%al
 80481fd:	85 04 08             	test   %eax,(%eax,%ecx,1)
 8048200:	3c 00                	cmp    $0x0,%al
 8048202:	00 00                	add    %al,(%eax)
 8048204:	12 00                	adc    (%eax),%al
 8048206:	00 00                	add    %al,(%eax)
 8048208:	e6 00                	out    %al,$0x0
 804820a:	00 00                	add    %al,(%eax)
 804820c:	bc 85 04 08 49       	mov    $0x49080485,%esp
 8048211:	00 00                	add    %al,(%eax)
 8048213:	00 12                	add    %dl,(%edx)
 8048215:	00 00                	add    %al,(%eax)
 8048217:	00 10                	add    %dl,(%eax)
 8048219:	00 00                	add    %al,(%eax)
 804821b:	00 cc                	add    %cl,%ah
 804821d:	85 04 08             	test   %eax,(%eax,%ecx,1)
 8048220:	a7                   	cmpsl  %es:(%edi),%ds:(%esi)
 8048221:	01 00                	add    %eax,(%eax)
 8048223:	00 12                	add    %dl,(%edx)
 8048225:	00 00                	add    %al,(%eax)
 8048227:	00 aa 00 00 00 78    	add    %ch,0x78000000(%edx)
 804822d:	88 04 08             	mov    %al,(%eax,%ecx,1)
 8048230:	04 00                	add    $0x0,%al
 8048232:	00 00                	add    %al,(%eax)
 8048234:	21 00                	and    %eax,(%eax)
 8048236:	0e                   	push   %cs
 8048237:	00 95 00 00 00 dc    	add    %dl,0xdc000000(%ebp)
 804823d:	85 04 08             	test   %eax,(%eax,%ecx,1)
 8048240:	d1 04 00             	roll   (%eax,%eax,1)
 8048243:	00 12                	add    %dl,(%edx)
 8048245:	00 00                	add    %al,(%eax)
 8048247:	00 bc 01 00 00 ec 85 	add    %bh,0x85ec0000(%ecx,%eax,1)
 804824e:	04 08                	add    $0x8,%al
 8048250:	f3 00 00             	repz add %al,(%eax)
 8048253:	00 12                	add    %dl,(%edx)
 8048255:	00 00                	add    %al,(%eax)
 8048257:	00 16                	add    %dl,(%esi)
 8048259:	01 00                	add    %eax,(%eax)
 804825b:	00 fc                	add    %bh,%ah
 804825d:	85 04 08             	test   %eax,(%eax,%ecx,1)
 8048260:	54                   	push   %esp
 8048261:	00 00                	add    %al,(%eax)
 8048263:	00 12                	add    %dl,(%edx)
 8048265:	00 00                	add    %al,(%eax)
 8048267:	00 ad 01 00 00 60    	add    %ch,0x60000001(%ebp)
 804826d:	88 04 08             	mov    %al,(%eax,%ecx,1)
 8048270:	04 00                	add    $0x0,%al
 8048272:	00 00                	add    %al,(%eax)
 8048274:	11 00                	adc    %eax,(%eax)
 8048276:	0e                   	push   %cs
 8048277:	00 5b 01             	add    %bl,0x1(%ebx)
	...
 8048282:	00 00                	add    %al,(%eax)
 8048284:	20 00                	and    %al,(%eax)
 8048286:	00 00                	add    %al,(%eax)
 8048288:	fe 00                	incb   (%eax)
 804828a:	00 00                	add    %al,(%eax)
 804828c:	0c 86                	or     $0x86,%al
 804828e:	04 08                	add    $0x8,%al
 8048290:	37                   	aaa    
 8048291:	00 00                	add    %al,(%eax)
 8048293:	00 12                	add    %dl,(%edx)
 8048295:	00 00                	add    %al,(%eax)
 8048297:	00 6f 01             	add    %ch,0x1(%edi)
	...
 80482a2:	00 00                	add    %al,(%eax)
 80482a4:	20 00                	and    %al,(%eax)
	...
Desensamblado de la sección .dynstr:

080482a8 <.dynstr>:
 80482a8:	00 6c 69 62          	add    %ch,0x62(%ecx,%ebp,2)
 80482ac:	73 74                	jae    8048322 <_init-0x252>
 80482ae:	64 63 2b             	arpl   %bp,%fs:(%ebx)
 80482b1:	2b 2e                	sub    (%esi),%ebp
 80482b3:	73 6f                	jae    8048324 <_init-0x250>
 80482b5:	2e                   	cs
 80482b6:	35 00 5f 5a 53       	xor    $0x535a5f00,%eax
 80482bb:	74 6c                	je     8048329 <_init-0x24b>
 80482bd:	73 49                	jae    8048308 <_init-0x26c>
 80482bf:	53                   	push   %ebx
 80482c0:	74 31                	je     80482f3 <_init-0x281>
 80482c2:	31 63 68             	xor    %esp,0x68(%ebx)
 80482c5:	61                   	popa   
 80482c6:	72 5f                	jb     8048327 <_init-0x24d>
 80482c8:	74 72                	je     804833c <_init-0x238>
 80482ca:	61                   	popa   
 80482cb:	69 74 73 49 63 45 45 	imul   $0x52454563,0x49(%ebx,%esi,2),%esi
 80482d2:	52 
 80482d3:	53                   	push   %ebx
 80482d4:	74 31                	je     8048307 <_init-0x26d>
 80482d6:	33 62 61             	xor    0x61(%edx),%esp
 80482d9:	73 69                	jae    8048344 <_init-0x230>
 80482db:	63 5f 6f             	arpl   %bx,0x6f(%edi)
 80482de:	73 74                	jae    8048354 <_init-0x220>
 80482e0:	72 65                	jb     8048347 <_init-0x22d>
 80482e2:	61                   	popa   
 80482e3:	6d                   	insl   (%dx),%es:(%edi)
 80482e4:	49                   	dec    %ecx
 80482e5:	63 54 5f 45          	arpl   %dx,0x45(%edi,%ebx,2)
 80482e9:	53                   	push   %ebx
 80482ea:	35 5f 50 4b 63       	xor    $0x634b505f,%eax
 80482ef:	00 5f 5a             	add    %bl,0x5a(%edi)
 80482f2:	4e                   	dec    %esi
 80482f3:	53                   	push   %ebx
 80482f4:	74 31                	je     8048327 <_init-0x24d>
 80482f6:	35 62 61 73 69       	xor    $0x69736162,%eax
 80482fb:	63 5f 73             	arpl   %bx,0x73(%edi)
 80482fe:	74 72                	je     8048372 <_init-0x202>
 8048300:	65                   	gs
 8048301:	61                   	popa   
 8048302:	6d                   	insl   (%dx),%es:(%edi)
 8048303:	62 75 66             	bound  %esi,0x66(%ebp)
 8048306:	49                   	dec    %ecx
 8048307:	63 53 74             	arpl   %dx,0x74(%ebx)
 804830a:	31 31                	xor    %esi,(%ecx)
 804830c:	63 68 61             	arpl   %bp,0x61(%eax)
 804830f:	72 5f                	jb     8048370 <_init-0x204>
 8048311:	74 72                	je     8048385 <_init-0x1ef>
 8048313:	61                   	popa   
 8048314:	69 74 73 49 63 45 45 	imul   $0x31454563,0x49(%ebx,%esi,2),%esi
 804831b:	31 
 804831c:	33 5f 53             	xor    0x53(%edi),%ebx
 804831f:	5f                   	pop    %edi
 8048320:	70 62                	jo     8048384 <_init-0x1f0>
 8048322:	61                   	popa   
 8048323:	63 6b 5f             	arpl   %bp,0x5f(%ebx)
 8048326:	73 69                	jae    8048391 <_init-0x1e3>
 8048328:	7a 65                	jp     804838f <_init-0x1e5>
 804832a:	45                   	inc    %ebp
 804832b:	00 5f 5a             	add    %bl,0x5a(%edi)
 804832e:	4e                   	dec    %esi
 804832f:	53                   	push   %ebx
 8048330:	6f                   	outsl  %ds:(%esi),(%dx)
 8048331:	6c                   	insb   (%dx),%es:(%edi)
 8048332:	73 45                	jae    8048379 <_init-0x1fb>
 8048334:	50                   	push   %eax
 8048335:	46                   	inc    %esi
 8048336:	52                   	push   %edx
 8048337:	53                   	push   %ebx
 8048338:	6f                   	outsl  %ds:(%esi),(%dx)
 8048339:	53                   	push   %ebx
 804833a:	5f                   	pop    %edi
 804833b:	45                   	inc    %ebp
 804833c:	00 5f 5f             	add    %bl,0x5f(%edi)
 804833f:	67 78 78             	addr16 js 80483ba <_init-0x1ba>
 8048342:	5f                   	pop    %edi
 8048343:	70 65                	jo     80483aa <_init-0x1ca>
 8048345:	72 73                	jb     80483ba <_init-0x1ba>
 8048347:	6f                   	outsl  %ds:(%esi),(%dx)
 8048348:	6e                   	outsb  %ds:(%esi),(%dx)
 8048349:	61                   	popa   
 804834a:	6c                   	insb   (%dx),%es:(%edi)
 804834b:	69 74 79 5f 76 30 00 	imul   $0x5f003076,0x5f(%ecx,%edi,2),%esi
 8048352:	5f 
 8048353:	5a                   	pop    %edx
 8048354:	4e                   	dec    %esi
 8048355:	53                   	push   %ebx
 8048356:	74 31                	je     8048389 <_init-0x1eb>
 8048358:	35 62 61 73 69       	xor    $0x69736162,%eax
 804835d:	63 5f 73             	arpl   %bx,0x73(%edi)
 8048360:	74 72                	je     80483d4 <_init-0x1a0>
 8048362:	65                   	gs
 8048363:	61                   	popa   
 8048364:	6d                   	insl   (%dx),%es:(%edi)
 8048365:	62 75 66             	bound  %esi,0x66(%ebp)
 8048368:	49                   	dec    %ecx
 8048369:	77 53                	ja     80483be <_init-0x1b6>
 804836b:	74 31                	je     804839e <_init-0x1d6>
 804836d:	31 63 68             	xor    %esp,0x68(%ebx)
 8048370:	61                   	popa   
 8048371:	72 5f                	jb     80483d2 <_init-0x1a2>
 8048373:	74 72                	je     80483e7 <_init-0x18d>
 8048375:	61                   	popa   
 8048376:	69 74 73 49 77 45 45 	imul   $0x31454577,0x49(%ebx,%esi,2),%esi
 804837d:	31 
 804837e:	33 5f 53             	xor    0x53(%edi),%ebx
 8048381:	5f                   	pop    %edi
 8048382:	70 62                	jo     80483e6 <_init-0x18e>
 8048384:	61                   	popa   
 8048385:	63 6b 5f             	arpl   %bp,0x5f(%ebx)
 8048388:	73 69                	jae    80483f3 <_init-0x181>
 804838a:	7a 65                	jp     80483f1 <_init-0x183>
 804838c:	45                   	inc    %ebp
 804838d:	00 5f 5a             	add    %bl,0x5a(%edi)
 8048390:	4e                   	dec    %esi
 8048391:	53                   	push   %ebx
 8048392:	74 38                	je     80483cc <_init-0x1a8>
 8048394:	69 6f 73 5f 62 61 73 	imul   $0x7361625f,0x73(%edi),%ebp
 804839b:	65                   	gs
 804839c:	34 49                	xor    $0x49,%al
 804839e:	6e                   	outsb  %ds:(%esi),(%dx)
 804839f:	69 74 43 31 45 76 00 	imul   $0x5f007645,0x31(%ebx,%eax,2),%esi
 80483a6:	5f 
 80483a7:	5a                   	pop    %edx
 80483a8:	4e                   	dec    %esi
 80483a9:	53                   	push   %ebx
 80483aa:	74 38                	je     80483e4 <_init-0x190>
 80483ac:	69 6f 73 5f 62 61 73 	imul   $0x7361625f,0x73(%edi),%ebp
 80483b3:	65                   	gs
 80483b4:	34 49                	xor    $0x49,%al
 80483b6:	6e                   	outsb  %ds:(%esi),(%dx)
 80483b7:	69 74 44 31 45 76 00 	imul   $0x5f007645,0x31(%esp,%eax,2),%esi
 80483be:	5f 
 80483bf:	5a                   	pop    %edx
 80483c0:	53                   	push   %ebx
 80483c1:	74 34                	je     80483f7 <_init-0x17d>
 80483c3:	65 6e                	outsb  %gs:(%esi),(%dx)
 80483c5:	64                   	fs
 80483c6:	6c                   	insb   (%dx),%es:(%edi)
 80483c7:	49                   	dec    %ecx
 80483c8:	63 53 74             	arpl   %dx,0x74(%ebx)
 80483cb:	31 31                	xor    %esi,(%ecx)
 80483cd:	63 68 61             	arpl   %bp,0x61(%eax)
 80483d0:	72 5f                	jb     8048431 <_init-0x143>
 80483d2:	74 72                	je     8048446 <_init-0x12e>
 80483d4:	61                   	popa   
 80483d5:	69 74 73 49 63 45 45 	imul   $0x52454563,0x49(%ebx,%esi,2),%esi
 80483dc:	52 
 80483dd:	53                   	push   %ebx
 80483de:	74 31                	je     8048411 <_init-0x163>
 80483e0:	33 62 61             	xor    0x61(%edx),%esp
 80483e3:	73 69                	jae    804844e <_init-0x126>
 80483e5:	63 5f 6f             	arpl   %bx,0x6f(%edi)
 80483e8:	73 74                	jae    804845e <_init-0x116>
 80483ea:	72 65                	jb     8048451 <_init-0x123>
 80483ec:	61                   	popa   
 80483ed:	6d                   	insl   (%dx),%es:(%edi)
 80483ee:	49                   	dec    %ecx
 80483ef:	54                   	push   %esp
 80483f0:	5f                   	pop    %edi
 80483f1:	54                   	push   %esp
 80483f2:	30 5f 45             	xor    %bl,0x45(%edi)
 80483f5:	53                   	push   %ebx
 80483f6:	36                   	ss
 80483f7:	5f                   	pop    %edi
 80483f8:	00 5f 5a             	add    %bl,0x5a(%edi)
 80483fb:	53                   	push   %ebx
 80483fc:	74 34                	je     8048432 <_init-0x142>
 80483fe:	63 6f 75             	arpl   %bp,0x75(%edi)
 8048401:	74 00                	je     8048403 <_init-0x171>
 8048403:	5f                   	pop    %edi
 8048404:	4a                   	dec    %edx
 8048405:	76 5f                	jbe    8048466 <_init-0x10e>
 8048407:	52                   	push   %edx
 8048408:	65 67 69 73 74 65 72 	addr16 imul $0x6c437265,%gs:116(%bp,%di),%esi
 804840f:	43 6c 
 8048411:	61                   	popa   
 8048412:	73 73                	jae    8048487 <_init-0xed>
 8048414:	65                   	gs
 8048415:	73 00                	jae    8048417 <_init-0x15d>
 8048417:	5f                   	pop    %edi
 8048418:	5f                   	pop    %edi
 8048419:	67 6d                	addr16 insl (%dx),%es:(%di)
 804841b:	6f                   	outsl  %ds:(%esi),(%dx)
 804841c:	6e                   	outsb  %ds:(%esi),(%dx)
 804841d:	5f                   	pop    %edi
 804841e:	73 74                	jae    8048494 <_init-0xe0>
 8048420:	61                   	popa   
 8048421:	72 74                	jb     8048497 <_init-0xdd>
 8048423:	5f                   	pop    %edi
 8048424:	5f                   	pop    %edi
 8048425:	00 6c 69 62          	add    %ch,0x62(%ecx,%ebp,2)
 8048429:	6d                   	insl   (%dx),%es:(%edi)
 804842a:	2e 73 6f             	jae,pn 804849c <_init-0xd8>
 804842d:	2e 36 00 6c 69 62    	add    %ch,%cs:%ss:0x62(%ecx,%ebp,2)
 8048433:	67 63 63 5f          	addr16 arpl %sp,95(%bp,%di)
 8048437:	73 2e                	jae    8048467 <_init-0x10d>
 8048439:	73 6f                	jae    80484aa <_init-0xca>
 804843b:	2e 31 00             	xor    %eax,%cs:(%eax)
 804843e:	6c                   	insb   (%dx),%es:(%edi)
 804843f:	69 62 63 2e 73 6f 2e 	imul   $0x2e6f732e,0x63(%edx),%esp
 8048446:	36 00 5f 5f          	add    %bl,%ss:0x5f(%edi)
 804844a:	63 78 61             	arpl   %di,0x61(%eax)
 804844d:	5f                   	pop    %edi
 804844e:	61                   	popa   
 804844f:	74 65                	je     80484b6 <_init-0xbe>
 8048451:	78 69                	js     80484bc <_init-0xb8>
 8048453:	74 00                	je     8048455 <_init-0x11f>
 8048455:	5f                   	pop    %edi
 8048456:	49                   	dec    %ecx
 8048457:	4f                   	dec    %edi
 8048458:	5f                   	pop    %edi
 8048459:	73 74                	jae    80484cf <_init-0xa5>
 804845b:	64 69 6e 5f 75 73 65 	imul   $0x64657375,%fs:0x5f(%esi),%ebp
 8048462:	64 
 8048463:	00 5f 5f             	add    %bl,0x5f(%edi)
 8048466:	6c                   	insb   (%dx),%es:(%edi)
 8048467:	69 62 63 5f 73 74 61 	imul   $0x6174735f,0x63(%edx),%esp
 804846e:	72 74                	jb     80484e4 <_init-0x90>
 8048470:	5f                   	pop    %edi
 8048471:	6d                   	insl   (%dx),%es:(%edi)
 8048472:	61                   	popa   
 8048473:	69 6e 00 47 4c 49 42 	imul   $0x42494c47,0x0(%esi),%ebp
 804847a:	43                   	inc    %ebx
 804847b:	5f                   	pop    %edi
 804847c:	32 2e                	xor    (%esi),%ch
 804847e:	30 00                	xor    %al,(%eax)
 8048480:	47                   	inc    %edi
 8048481:	4c                   	dec    %esp
 8048482:	49                   	dec    %ecx
 8048483:	42                   	inc    %edx
 8048484:	43                   	inc    %ebx
 8048485:	5f                   	pop    %edi
 8048486:	32 2e                	xor    (%esi),%ch
 8048488:	31 2e                	xor    %ebp,(%esi)
 804848a:	33 00                	xor    (%eax),%eax
 804848c:	43                   	inc    %ebx
 804848d:	58                   	pop    %eax
 804848e:	58                   	pop    %eax
 804848f:	41                   	inc    %ecx
 8048490:	42                   	inc    %edx
 8048491:	49                   	dec    %ecx
 8048492:	5f                   	pop    %edi
 8048493:	31 2e                	xor    %ebp,(%esi)
 8048495:	32 00                	xor    (%eax),%al
 8048497:	47                   	inc    %edi
 8048498:	4c                   	dec    %esp
 8048499:	49                   	dec    %ecx
 804849a:	42                   	inc    %edx
 804849b:	43                   	inc    %ebx
 804849c:	50                   	push   %eax
 804849d:	50                   	push   %eax
 804849e:	5f                   	pop    %edi
 804849f:	33 2e                	xor    (%esi),%ebp
 80484a1:	32 00                	xor    (%eax),%al
Desensamblado de la sección .gnu.version:

080484a4 <.gnu.version>:
 80484a4:	00 00                	add    %al,(%eax)
 80484a6:	01 00                	add    %eax,(%eax)
 80484a8:	02 00                	add    (%eax),%al
 80484aa:	02 00                	add    (%eax),%al
 80484ac:	03 00                	add    (%eax),%eax
 80484ae:	02 00                	add    (%eax),%al
 80484b0:	02 00                	add    (%eax),%al
 80484b2:	01 00                	add    %eax,(%eax)
 80484b4:	04 00                	add    $0x0,%al
 80484b6:	05 00 02 00 01       	add    $0x1000200,%eax
 80484bb:	00 00                	add    %al,(%eax)
 80484bd:	00 02                	add    %al,(%edx)
 80484bf:	00 00                	add    %al,(%eax)
	...
Desensamblado de la sección .gnu.version_r:

080484c4 <.gnu.version_r>:
 80484c4:	01 00                	add    %eax,(%eax)
 80484c6:	02 00                	add    (%eax),%al
 80484c8:	96                   	xchg   %eax,%esi
 80484c9:	01 00                	add    %eax,(%eax)
 80484cb:	00 10                	add    %dl,(%eax)
 80484cd:	00 00                	add    %al,(%eax)
 80484cf:	00 30                	add    %dh,(%eax)
 80484d1:	00 00                	add    %al,(%eax)
 80484d3:	00 10                	add    %dl,(%eax)
 80484d5:	69 69 0d 00 00 05 00 	imul   $0x50000,0xd(%ecx),%ebp
 80484dc:	ce                   	into   
 80484dd:	01 00                	add    %eax,(%eax)
 80484df:	00 10                	add    %dl,(%eax)
 80484e1:	00 00                	add    %al,(%eax)
 80484e3:	00 73 1f             	add    %dh,0x1f(%ebx)
 80484e6:	69 09 00 00 03 00    	imul   $0x30000,(%ecx),%ecx
 80484ec:	d8 01                	fadds  (%ecx)
 80484ee:	00 00                	add    %al,(%eax)
 80484f0:	00 00                	add    %al,(%eax)
 80484f2:	00 00                	add    %al,(%eax)
 80484f4:	01 00                	add    %eax,(%eax)
 80484f6:	02 00                	add    (%eax),%al
 80484f8:	01 00                	add    %eax,(%eax)
 80484fa:	00 00                	add    %al,(%eax)
 80484fc:	10 00                	adc    %al,(%eax)
 80484fe:	00 00                	add    %al,(%eax)
 8048500:	00 00                	add    %al,(%eax)
 8048502:	00 00                	add    %al,(%eax)
 8048504:	d2 af 6b 05 00 00    	shrb   %cl,0x56b(%edi)
 804850a:	04 00                	add    $0x0,%al
 804850c:	e4 01                	in     $0x1,%al
 804850e:	00 00                	add    %al,(%eax)
 8048510:	10 00                	adc    %al,(%eax)
 8048512:	00 00                	add    %al,(%eax)
 8048514:	72 29                	jb     804853f <_init-0x35>
 8048516:	1a 08                	sbb    (%eax),%cl
 8048518:	00 00                	add    %al,(%eax)
 804851a:	02 00                	add    (%eax),%al
 804851c:	ef                   	out    %eax,(%dx)
 804851d:	01 00                	add    %eax,(%eax)
 804851f:	00 00                	add    %al,(%eax)
 8048521:	00 00                	add    %al,(%eax)
	...
Desensamblado de la sección .rel.dyn:

08048524 <.rel.dyn>:
 8048524:	6c                   	insb   (%dx),%es:(%edi)
 8048525:	9a 04 08 06 0e 00 00 	lcall  $0x0,$0xe060804
 804852c:	70 9a                	jo     80484c8 <_init-0xac>
 804852e:	04 08                	add    $0x8,%al
 8048530:	05                   	.byte 0x5
 8048531:	02 00                	add    (%eax),%al
	...
Desensamblado de la sección .rel.plt:

08048534 <.rel.plt>:
 8048534:	4c                   	dec    %esp
 8048535:	9a 04 08 07 03 00 00 	lcall  $0x0,$0x3070804
 804853c:	50                   	push   %eax
 804853d:	9a 04 08 07 04 00 00 	lcall  $0x0,$0x4070804
 8048544:	54                   	push   %esp
 8048545:	9a 04 08 07 05 00 00 	lcall  $0x0,$0x5070804
 804854c:	58                   	pop    %eax
 804854d:	9a 04 08 07 06 00 00 	lcall  $0x0,$0x6070804
 8048554:	5c                   	pop    %esp
 8048555:	9a 04 08 07 08 00 00 	lcall  $0x0,$0x8070804
 804855c:	60                   	pusha  
 804855d:	9a 04 08 07 09 00 00 	lcall  $0x0,$0x9070804
 8048564:	64                   	fs
 8048565:	9a 04 08 07 0a 00 00 	lcall  $0x0,$0xa070804
 804856c:	68 9a 04 08 07       	push   $0x708049a
 8048571:	0d                   	.byte 0xd
	...
Desensamblado de la sección .init:

08048574 <_init>:
 8048574:	55                   	push   %ebp
 8048575:	89 e5                	mov    %esp,%ebp
 8048577:	83 ec 08             	sub    $0x8,%esp
 804857a:	e8 c1 00 00 00       	call   8048640 <call_gmon_start>
 804857f:	e8 1c 01 00 00       	call   80486a0 <frame_dummy>
 8048584:	e8 93 02 00 00       	call   804881c <__do_global_ctors_aux>
 8048589:	c9                   	leave  
 804858a:	c3                   	ret    
Desensamblado de la sección .plt:

0804858c <.plt>:
 804858c:	ff 35 44 9a 04 08    	pushl  0x8049a44
 8048592:	ff 25 48 9a 04 08    	jmp    *0x8049a48
 8048598:	00 00                	add    %al,(%eax)
 804859a:	00 00                	add    %al,(%eax)
 804859c:	ff 25 4c 9a 04 08    	jmp    *0x8049a4c
 80485a2:	68 00 00 00 00       	push   $0x0
 80485a7:	e9 e0 ff ff ff       	jmp    804858c <_init+0x18>
 80485ac:	ff 25 50 9a 04 08    	jmp    *0x8049a50
 80485b2:	68 08 00 00 00       	push   $0x8
 80485b7:	e9 d0 ff ff ff       	jmp    804858c <_init+0x18>
 80485bc:	ff 25 54 9a 04 08    	jmp    *0x8049a54
 80485c2:	68 10 00 00 00       	push   $0x10
 80485c7:	e9 c0 ff ff ff       	jmp    804858c <_init+0x18>
 80485cc:	ff 25 58 9a 04 08    	jmp    *0x8049a58
 80485d2:	68 18 00 00 00       	push   $0x18
 80485d7:	e9 b0 ff ff ff       	jmp    804858c <_init+0x18>
 80485dc:	ff 25 5c 9a 04 08    	jmp    *0x8049a5c
 80485e2:	68 20 00 00 00       	push   $0x20
 80485e7:	e9 a0 ff ff ff       	jmp    804858c <_init+0x18>
 80485ec:	ff 25 60 9a 04 08    	jmp    *0x8049a60
 80485f2:	68 28 00 00 00       	push   $0x28
 80485f7:	e9 90 ff ff ff       	jmp    804858c <_init+0x18>
 80485fc:	ff 25 64 9a 04 08    	jmp    *0x8049a64
 8048602:	68 30 00 00 00       	push   $0x30
 8048607:	e9 80 ff ff ff       	jmp    804858c <_init+0x18>
 804860c:	ff 25 68 9a 04 08    	jmp    *0x8049a68
 8048612:	68 38 00 00 00       	push   $0x38
 8048617:	e9 70 ff ff ff       	jmp    804858c <_init+0x18>
Desensamblado de la sección .text:

0804861c <_start>:
 804861c:	31 ed                	xor    %ebp,%ebp
 804861e:	5e                   	pop    %esi
 804861f:	89 e1                	mov    %esp,%ecx
 8048621:	83 e4 f0             	and    $0xfffffff0,%esp
 8048624:	50                   	push   %eax
 8048625:	54                   	push   %esp
 8048626:	52                   	push   %edx
 8048627:	68 d8 87 04 08       	push   $0x80487d8
 804862c:	68 90 87 04 08       	push   $0x8048790
 8048631:	51                   	push   %ecx
 8048632:	56                   	push   %esi
 8048633:	68 cc 86 04 08       	push   $0x80486cc
 8048638:	e8 af ff ff ff       	call   80485ec <_init+0x78>
 804863d:	f4                   	hlt    
 804863e:	90                   	nop    
 804863f:	90                   	nop    

08048640 <call_gmon_start>:
 8048640:	55                   	push   %ebp
 8048641:	89 e5                	mov    %esp,%ebp
 8048643:	53                   	push   %ebx
 8048644:	e8 00 00 00 00       	call   8048649 <call_gmon_start+0x9>
 8048649:	5b                   	pop    %ebx
 804864a:	81 c3 f7 13 00 00    	add    $0x13f7,%ebx
 8048650:	50                   	push   %eax
 8048651:	8b 83 2c 00 00 00    	mov    0x2c(%ebx),%eax
 8048657:	85 c0                	test   %eax,%eax
 8048659:	74 02                	je     804865d <call_gmon_start+0x1d>
 804865b:	ff d0                	call   *%eax
 804865d:	8b 5d fc             	mov    0xfffffffc(%ebp),%ebx
 8048660:	c9                   	leave  
 8048661:	c3                   	ret    
 8048662:	90                   	nop    
 8048663:	90                   	nop    

08048664 <__do_global_dtors_aux>:
 8048664:	55                   	push   %ebp
 8048665:	89 e5                	mov    %esp,%ebp
 8048667:	83 ec 08             	sub    $0x8,%esp
 804866a:	80 3d fc 9a 04 08 00 	cmpb   $0x0,0x8049afc
 8048671:	75 29                	jne    804869c <__do_global_dtors_aux+0x38>
 8048673:	a1 44 99 04 08       	mov    0x8049944,%eax
 8048678:	8b 10                	mov    (%eax),%edx
 804867a:	85 d2                	test   %edx,%edx
 804867c:	74 17                	je     8048695 <__do_global_dtors_aux+0x31>
 804867e:	89 f6                	mov    %esi,%esi
 8048680:	83 c0 04             	add    $0x4,%eax
 8048683:	a3 44 99 04 08       	mov    %eax,0x8049944
 8048688:	ff d2                	call   *%edx
 804868a:	a1 44 99 04 08       	mov    0x8049944,%eax
 804868f:	8b 10                	mov    (%eax),%edx
 8048691:	85 d2                	test   %edx,%edx
 8048693:	75 eb                	jne    8048680 <__do_global_dtors_aux+0x1c>
 8048695:	c6 05 fc 9a 04 08 01 	movb   $0x1,0x8049afc
 804869c:	c9                   	leave  
 804869d:	c3                   	ret    
 804869e:	89 f6                	mov    %esi,%esi

080486a0 <frame_dummy>:
 80486a0:	55                   	push   %ebp
 80486a1:	89 e5                	mov    %esp,%ebp
 80486a3:	83 ec 08             	sub    $0x8,%esp
 80486a6:	a1 3c 9a 04 08       	mov    0x8049a3c,%eax
 80486ab:	85 c0                	test   %eax,%eax
 80486ad:	74 19                	je     80486c8 <frame_dummy+0x28>
 80486af:	b8 00 00 00 00       	mov    $0x0,%eax
 80486b4:	85 c0                	test   %eax,%eax
 80486b6:	74 10                	je     80486c8 <frame_dummy+0x28>
 80486b8:	83 ec 0c             	sub    $0xc,%esp
 80486bb:	68 3c 9a 04 08       	push   $0x8049a3c
 80486c0:	e8 3b 79 fb f7       	call   0 <_init-0x8048574>
 80486c5:	83 c4 10             	add    $0x10,%esp
 80486c8:	c9                   	leave  
 80486c9:	c3                   	ret    
 80486ca:	90                   	nop    
 80486cb:	90                   	nop    

080486cc <main>:
 80486cc:	55                   	push   %ebp
 80486cd:	89 e5                	mov    %esp,%ebp
 80486cf:	83 ec 08             	sub    $0x8,%esp
 80486d2:	83 e4 f0             	and    $0xfffffff0,%esp
 80486d5:	b8 00 00 00 00       	mov    $0x0,%eax
 80486da:	29 c4                	sub    %eax,%esp
 80486dc:	c7 45 fc 0a 00 00 00 	movl   $0xa,0xfffffffc(%ebp)
 80486e3:	c7 45 f8 0a 00 00 00 	movl   $0xa,0xfffffff8(%ebp)
 80486ea:	83 7d f8 0a          	cmpl   $0xa,0xfffffff8(%ebp)
 80486ee:	7e 26                	jle    8048716 <main+0x4a>
 80486f0:	83 ec 08             	sub    $0x8,%esp
 80486f3:	68 fc 85 04 08       	push   $0x80485fc
 80486f8:	83 ec 0c             	sub    $0xc,%esp
 80486fb:	68 64 88 04 08       	push   $0x8048864
 8048700:	68 70 9a 04 08       	push   $0x8049a70
 8048705:	e8 c2 fe ff ff       	call   80485cc <_init+0x58>
 804870a:	83 c4 14             	add    $0x14,%esp
 804870d:	50                   	push   %eax
 804870e:	e8 89 fe ff ff       	call   804859c <_init+0x28>
 8048713:	83 c4 10             	add    $0x10,%esp
 8048716:	b8 00 00 00 00       	mov    $0x0,%eax
 804871b:	c9                   	leave  
 804871c:	c3                   	ret    
 804871d:	90                   	nop    

0804871e <_Z41__static_initialization_and_destruction_0ii>:
 804871e:	55                   	push   %ebp
 804871f:	89 e5                	mov    %esp,%ebp
 8048721:	83 ec 08             	sub    $0x8,%esp
 8048724:	81 7d 0c ff ff 00 00 	cmpl   $0xffff,0xc(%ebp)
 804872b:	75 2d                	jne    804875a <_Z41__static_initialization_and_destruction_0ii+0x3c>
 804872d:	83 7d 08 01          	cmpl   $0x1,0x8(%ebp)
 8048731:	75 27                	jne    804875a <_Z41__static_initialization_and_destruction_0ii+0x3c>
 8048733:	83 ec 0c             	sub    $0xc,%esp
 8048736:	68 00 9b 04 08       	push   $0x8049b00
 804873b:	e8 7c fe ff ff       	call   80485bc <_init+0x48>
 8048740:	83 c4 10             	add    $0x10,%esp
 8048743:	83 ec 04             	sub    $0x4,%esp
 8048746:	68 40 99 04 08       	push   $0x8049940
 804874b:	6a 00                	push   $0x0
 804874d:	68 5c 87 04 08       	push   $0x804875c
 8048752:	e8 55 fe ff ff       	call   80485ac <_init+0x38>
 8048757:	83 c4 10             	add    $0x10,%esp
 804875a:	c9                   	leave  
 804875b:	c3                   	ret    

0804875c <__tcf_0>:
 804875c:	55                   	push   %ebp
 804875d:	89 e5                	mov    %esp,%ebp
 804875f:	83 ec 08             	sub    $0x8,%esp
 8048762:	83 ec 0c             	sub    $0xc,%esp
 8048765:	68 00 9b 04 08       	push   $0x8049b00
 804876a:	e8 9d fe ff ff       	call   804860c <_init+0x98>
 804876f:	83 c4 10             	add    $0x10,%esp
 8048772:	c9                   	leave  
 8048773:	c3                   	ret    

08048774 <_GLOBAL__I_main>:
 8048774:	55                   	push   %ebp
 8048775:	89 e5                	mov    %esp,%ebp
 8048777:	83 ec 08             	sub    $0x8,%esp
 804877a:	83 ec 08             	sub    $0x8,%esp
 804877d:	68 ff ff 00 00       	push   $0xffff
 8048782:	6a 01                	push   $0x1
 8048784:	e8 95 ff ff ff       	call   804871e <_Z41__static_initialization_and_destruction_0ii>
 8048789:	83 c4 10             	add    $0x10,%esp
 804878c:	c9                   	leave  
 804878d:	c3                   	ret    
 804878e:	90                   	nop    
 804878f:	90                   	nop    

08048790 <__libc_csu_init>:
 8048790:	55                   	push   %ebp
 8048791:	89 e5                	mov    %esp,%ebp
 8048793:	57                   	push   %edi
 8048794:	56                   	push   %esi
 8048795:	53                   	push   %ebx
 8048796:	83 ec 0c             	sub    $0xc,%esp
 8048799:	e8 00 00 00 00       	call   804879e <__libc_csu_init+0xe>
 804879e:	5b                   	pop    %ebx
 804879f:	81 c3 a2 12 00 00    	add    $0x12a2,%ebx
 80487a5:	e8 ca fd ff ff       	call   8048574 <_init>
 80487aa:	8d 93 fc fe ff ff    	lea    0xfffffefc(%ebx),%edx
 80487b0:	8d 8b fc fe ff ff    	lea    0xfffffefc(%ebx),%ecx
 80487b6:	29 ca                	sub    %ecx,%edx
 80487b8:	31 f6                	xor    %esi,%esi
 80487ba:	c1 fa 02             	sar    $0x2,%edx
 80487bd:	39 d6                	cmp    %edx,%esi
 80487bf:	73 0f                	jae    80487d0 <__libc_csu_init+0x40>
 80487c1:	89 d7                	mov    %edx,%edi
 80487c3:	90                   	nop    
 80487c4:	ff 94 b3 fc fe ff ff 	call   *0xfffffefc(%ebx,%esi,4)
 80487cb:	46                   	inc    %esi
 80487cc:	39 fe                	cmp    %edi,%esi
 80487ce:	72 f4                	jb     80487c4 <__libc_csu_init+0x34>
 80487d0:	83 c4 0c             	add    $0xc,%esp
 80487d3:	5b                   	pop    %ebx
 80487d4:	5e                   	pop    %esi
 80487d5:	5f                   	pop    %edi
 80487d6:	c9                   	leave  
 80487d7:	c3                   	ret    

080487d8 <__libc_csu_fini>:
 80487d8:	55                   	push   %ebp
 80487d9:	89 e5                	mov    %esp,%ebp
 80487db:	56                   	push   %esi
 80487dc:	53                   	push   %ebx
 80487dd:	e8 00 00 00 00       	call   80487e2 <__libc_csu_fini+0xa>
 80487e2:	5b                   	pop    %ebx
 80487e3:	81 c3 5e 12 00 00    	add    $0x125e,%ebx
 80487e9:	8d 8b fc fe ff ff    	lea    0xfffffefc(%ebx),%ecx
 80487ef:	8d 83 fc fe ff ff    	lea    0xfffffefc(%ebx),%eax
 80487f5:	29 c1                	sub    %eax,%ecx
 80487f7:	c1 f9 02             	sar    $0x2,%ecx
 80487fa:	85 c9                	test   %ecx,%ecx
 80487fc:	8d 71 ff             	lea    0xffffffff(%ecx),%esi
 80487ff:	75 0b                	jne    804880c <__libc_csu_fini+0x34>
 8048801:	e8 3a 00 00 00       	call   8048840 <_fini>
 8048806:	5b                   	pop    %ebx
 8048807:	5e                   	pop    %esi
 8048808:	c9                   	leave  
 8048809:	c3                   	ret    
 804880a:	89 f6                	mov    %esi,%esi
 804880c:	ff 94 b3 fc fe ff ff 	call   *0xfffffefc(%ebx,%esi,4)
 8048813:	89 f2                	mov    %esi,%edx
 8048815:	4e                   	dec    %esi
 8048816:	85 d2                	test   %edx,%edx
 8048818:	75 f2                	jne    804880c <__libc_csu_fini+0x34>
 804881a:	eb e5                	jmp    8048801 <__libc_csu_fini+0x29>

0804881c <__do_global_ctors_aux>:
 804881c:	55                   	push   %ebp
 804881d:	89 e5                	mov    %esp,%ebp
 804881f:	53                   	push   %ebx
 8048820:	52                   	push   %edx
 8048821:	a1 2c 9a 04 08       	mov    0x8049a2c,%eax
 8048826:	83 f8 ff             	cmp    $0xffffffff,%eax
 8048829:	bb 2c 9a 04 08       	mov    $0x8049a2c,%ebx
 804882e:	74 0c                	je     804883c <__do_global_ctors_aux+0x20>
 8048830:	83 eb 04             	sub    $0x4,%ebx
 8048833:	ff d0                	call   *%eax
 8048835:	8b 03                	mov    (%ebx),%eax
 8048837:	83 f8 ff             	cmp    $0xffffffff,%eax
 804883a:	75 f4                	jne    8048830 <__do_global_ctors_aux+0x14>
 804883c:	58                   	pop    %eax
 804883d:	5b                   	pop    %ebx
 804883e:	c9                   	leave  
 804883f:	c3                   	ret    
Desensamblado de la sección .fini:

08048840 <_fini>:
 8048840:	55                   	push   %ebp
 8048841:	89 e5                	mov    %esp,%ebp
 8048843:	53                   	push   %ebx
 8048844:	e8 00 00 00 00       	call   8048849 <_fini+0x9>
 8048849:	5b                   	pop    %ebx
 804884a:	81 c3 f7 11 00 00    	add    $0x11f7,%ebx
 8048850:	52                   	push   %edx
 8048851:	e8 0e fe ff ff       	call   8048664 <__do_global_dtors_aux>
 8048856:	8b 5d fc             	mov    0xfffffffc(%ebp),%ebx
 8048859:	c9                   	leave  
 804885a:	c3                   	ret    
Desensamblado de la sección .rodata:

0804885c <_fp_hw>:
 804885c:	03 00                	add    (%eax),%eax
	...

08048860 <_IO_stdin_used>:
 8048860:	01 00                	add    %eax,(%eax)
 8048862:	02 00                	add    (%eax),%al
 8048864:	69 20 65 73 20 6c    	imul   $0x6c207365,(%eax),%esp
 804886a:	6f                   	outsl  %ds:(%esi),(%dx)
 804886b:	20 6d 61             	and    %ch,0x61(%ebp)
 804886e:	78 69                	js     80488d9 <_ZNSt15basic_streambufIwSt11char_traitsIwEE13_S_pback_sizeE+0x61>
 8048870:	6d                   	insl   (%dx),%es:(%edi)
 8048871:	6f                   	outsl  %ds:(%esi),(%dx)
	...

08048874 <_ZNSt15basic_streambufIcSt11char_traitsIcEE13_S_pback_sizeE>:
 8048874:	01 00                	add    %eax,(%eax)
	...

08048878 <_ZNSt15basic_streambufIwSt11char_traitsIwEE13_S_pback_sizeE>:
 8048878:	01 00                	add    %eax,(%eax)
	...
Desensamblado de la sección .eh_frame_hdr:

0804887c <.eh_frame_hdr>:
 804887c:	01 1b                	add    %ebx,(%ebx)
 804887e:	03 3b                	add    (%ebx),%edi
 8048880:	28 00                	sub    %al,(%eax)
 8048882:	00 00                	add    %al,(%eax)
 8048884:	04 00                	add    $0x0,%al
 8048886:	00 00                	add    %al,(%eax)
 8048888:	50                   	push   %eax
 8048889:	fe                   	(bad)  
 804888a:	ff                   	(bad)  
 804888b:	ff 48 00             	decl   0x0(%eax)
 804888e:	00 00                	add    %al,(%eax)
 8048890:	a2 fe ff ff 68       	mov    %al,0x68fffffe
 8048895:	00 00                	add    %al,(%eax)
 8048897:	00 e0                	add    %ah,%al
 8048899:	fe                   	(bad)  
 804889a:	ff                   	(bad)  
 804889b:	ff 84 00 00 00 f8 fe 	incl   0xfef80000(%eax,%eax,1)
 80488a2:	ff                   	(bad)  
 80488a3:	ff                   	.byte 0xff
 80488a4:	a0                   	.byte 0xa0
 80488a5:	00 00                	add    %al,(%eax)
	...
Desensamblado de la sección .eh_frame:

080488a8 <__FRAME_END__-0x90>:
 80488a8:	18 00                	sbb    %al,(%eax)
 80488aa:	00 00                	add    %al,(%eax)
 80488ac:	00 00                	add    %al,(%eax)
 80488ae:	00 00                	add    %al,(%eax)
 80488b0:	01 7a 50             	add    %edi,0x50(%edx)
 80488b3:	00 01                	add    %al,(%ecx)
 80488b5:	7c 08                	jl     80488bf <_ZNSt15basic_streambufIwSt11char_traitsIwEE13_S_pback_sizeE+0x47>
 80488b7:	05 00 dc 85 04       	add    $0x485dc00,%eax
 80488bc:	08 0c 04             	or     %cl,(%esp,%eax,1)
 80488bf:	04 88                	add    $0x88,%al
 80488c1:	01 00                	add    %eax,(%eax)
 80488c3:	00 1c 00             	add    %bl,(%eax,%eax,1)
 80488c6:	00 00                	add    %al,(%eax)
 80488c8:	20 00                	and    %al,(%eax)
 80488ca:	00 00                	add    %al,(%eax)
 80488cc:	cc                   	int3   
 80488cd:	86 04 08             	xchg   %al,(%eax,%ecx,1)
 80488d0:	51                   	push   %ecx
 80488d1:	00 00                	add    %al,(%eax)
 80488d3:	00 00                	add    %al,(%eax)
 80488d5:	41                   	inc    %ecx
 80488d6:	0e                   	push   %cs
 80488d7:	08 85 02 42 0d 05    	or     %al,0x50d4202(%ebp)
 80488dd:	76 2e                	jbe    804890d <_ZNSt15basic_streambufIwSt11char_traitsIwEE13_S_pback_sizeE+0x95>
 80488df:	14 49                	adc    $0x49,%al
 80488e1:	2e 10 00             	adc    %al,%cs:(%eax)
 80488e4:	18 00                	sbb    %al,(%eax)
 80488e6:	00 00                	add    %al,(%eax)
 80488e8:	40                   	inc    %eax
 80488e9:	00 00                	add    %al,(%eax)
 80488eb:	00 1e                	add    %bl,(%esi)
 80488ed:	87 04 08             	xchg   %eax,(%eax,%ecx,1)
 80488f0:	3e 00 00             	add    %al,%ds:(%eax)
 80488f3:	00 00                	add    %al,(%eax)
 80488f5:	41                   	inc    %ecx
 80488f6:	0e                   	push   %cs
 80488f7:	08 85 02 42 0d 05    	or     %al,0x50d4202(%ebp)
 80488fd:	5a                   	pop    %edx
 80488fe:	2e 10 18             	adc    %bl,%cs:(%eax)
 8048901:	00 00                	add    %al,(%eax)
 8048903:	00 5c 00 00          	add    %bl,0x0(%eax,%eax,1)
 8048907:	00 5c 87 04          	add    %bl,0x4(%edi,%eax,4)
 804890b:	08 18                	or     %bl,(%eax)
 804890d:	00 00                	add    %al,(%eax)
 804890f:	00 00                	add    %al,(%eax)
 8048911:	41                   	inc    %ecx
 8048912:	0e                   	push   %cs
 8048913:	08 85 02 42 0d 05    	or     %al,0x50d4202(%ebp)
 8048919:	4b                   	dec    %ebx
 804891a:	2e 10 18             	adc    %bl,%cs:(%eax)
 804891d:	00 00                	add    %al,(%eax)
 804891f:	00 78 00             	add    %bh,0x0(%eax)
 8048922:	00 00                	add    %al,(%eax)
 8048924:	74 87                	je     80488ad <_ZNSt15basic_streambufIwSt11char_traitsIwEE13_S_pback_sizeE+0x35>
 8048926:	04 08                	add    $0x8,%al
 8048928:	1a 00                	sbb    (%eax),%al
 804892a:	00 00                	add    %al,(%eax)
 804892c:	00 41 0e             	add    %al,0xe(%ecx)
 804892f:	08 85 02 42 0d 05    	or     %al,0x50d4202(%ebp)
 8048935:	4d                   	dec    %ebp
 8048936:	2e 10 00             	adc    %al,%cs:(%eax)

08048938 <__FRAME_END__>:
 8048938:	00 00                	add    %al,(%eax)
	...
Desensamblado de la sección .data:

0804993c <__data_start>:
 804993c:	00 00                	add    %al,(%eax)
	...

08049940 <__dso_handle>:
 8049940:	00 00                	add    %al,(%eax)
	...

08049944 <p.0>:
 8049944:	38                   	.byte 0x38
 8049945:	9a                   	.byte 0x9a
 8049946:	04 08                	add    $0x8,%al
Desensamblado de la sección .dynamic:

08049948 <_DYNAMIC>:
 8049948:	01 00                	add    %eax,(%eax)
 804994a:	00 00                	add    %al,(%eax)
 804994c:	01 00                	add    %eax,(%eax)
 804994e:	00 00                	add    %al,(%eax)
 8049950:	01 00                	add    %eax,(%eax)
 8049952:	00 00                	add    %al,(%eax)
 8049954:	7e 01                	jle    8049957 <_DYNAMIC+0xf>
 8049956:	00 00                	add    %al,(%eax)
 8049958:	01 00                	add    %eax,(%eax)
 804995a:	00 00                	add    %al,(%eax)
 804995c:	88 01                	mov    %al,(%ecx)
 804995e:	00 00                	add    %al,(%eax)
 8049960:	01 00                	add    %eax,(%eax)
 8049962:	00 00                	add    %al,(%eax)
 8049964:	96                   	xchg   %eax,%esi
 8049965:	01 00                	add    %eax,(%eax)
 8049967:	00 0c 00             	add    %cl,(%eax,%eax,1)
 804996a:	00 00                	add    %al,(%eax)
 804996c:	74 85                	je     80498f3 <__FRAME_END__+0xfbb>
 804996e:	04 08                	add    $0x8,%al
 8049970:	0d 00 00 00 40       	or     $0x40000000,%eax
 8049975:	88 04 08             	mov    %al,(%eax,%ecx,1)
 8049978:	04 00                	add    $0x0,%al
 804997a:	00 00                	add    %al,(%eax)
 804997c:	68 81 04 08 05       	push   $0x5080481
 8049981:	00 00                	add    %al,(%eax)
 8049983:	00 a8 82 04 08 06    	add    %ch,0x6080482(%eax)
 8049989:	00 00                	add    %al,(%eax)
 804998b:	00 b8 81 04 08 0a    	add    %bh,0xa080481(%eax)
 8049991:	00 00                	add    %al,(%eax)
 8049993:	00 fb                	add    %bh,%bl
 8049995:	01 00                	add    %eax,(%eax)
 8049997:	00 0b                	add    %cl,(%ebx)
 8049999:	00 00                	add    %al,(%eax)
 804999b:	00 10                	add    %dl,(%eax)
 804999d:	00 00                	add    %al,(%eax)
 804999f:	00 15 00 00 00 00    	add    %dl,0x0
 80499a5:	00 00                	add    %al,(%eax)
 80499a7:	00 03                	add    %al,(%ebx)
 80499a9:	00 00                	add    %al,(%eax)
 80499ab:	00 40 9a             	add    %al,0xffffff9a(%eax)
 80499ae:	04 08                	add    $0x8,%al
 80499b0:	02 00                	add    (%eax),%al
 80499b2:	00 00                	add    %al,(%eax)
 80499b4:	40                   	inc    %eax
 80499b5:	00 00                	add    %al,(%eax)
 80499b7:	00 14 00             	add    %dl,(%eax,%eax,1)
 80499ba:	00 00                	add    %al,(%eax)
 80499bc:	11 00                	adc    %eax,(%eax)
 80499be:	00 00                	add    %al,(%eax)
 80499c0:	17                   	pop    %ss
 80499c1:	00 00                	add    %al,(%eax)
 80499c3:	00 34 85 04 08 11 00 	add    %dh,0x110804(,%eax,4)
 80499ca:	00 00                	add    %al,(%eax)
 80499cc:	24 85                	and    $0x85,%al
 80499ce:	04 08                	add    $0x8,%al
 80499d0:	12 00                	adc    (%eax),%al
 80499d2:	00 00                	add    %al,(%eax)
 80499d4:	10 00                	adc    %al,(%eax)
 80499d6:	00 00                	add    %al,(%eax)
 80499d8:	13 00                	adc    (%eax),%eax
 80499da:	00 00                	add    %al,(%eax)
 80499dc:	08 00                	or     %al,(%eax)
 80499de:	00 00                	add    %al,(%eax)
 80499e0:	fe                   	(bad)  
 80499e1:	ff                   	(bad)  
 80499e2:	ff 6f c4             	ljmp   *0xffffffc4(%edi)
 80499e5:	84 04 08             	test   %al,(%eax,%ecx,1)
 80499e8:	ff                   	(bad)  
 80499e9:	ff                   	(bad)  
 80499ea:	ff 6f 02             	ljmp   *0x2(%edi)
 80499ed:	00 00                	add    %al,(%eax)
 80499ef:	00 f0                	add    %dh,%al
 80499f1:	ff                   	(bad)  
 80499f2:	ff 6f a4             	ljmp   *0xffffffa4(%edi)
 80499f5:	84 04 08             	test   %al,(%eax,%ecx,1)
	...
Desensamblado de la sección .ctors:

08049a28 <__CTOR_LIST__>:
 8049a28:	ff                   	(bad)  
 8049a29:	ff                   	(bad)  
 8049a2a:	ff                   	(bad)  
 8049a2b:	ff 74 87 04          	pushl  0x4(%edi,%eax,4)
 8049a2f:	08 00                	or     %al,(%eax)

08049a30 <__CTOR_END__>:
 8049a30:	00 00                	add    %al,(%eax)
	...
Desensamblado de la sección .dtors:

08049a34 <__DTOR_LIST__>:
 8049a34:	ff                   	(bad)  
 8049a35:	ff                   	(bad)  
 8049a36:	ff                   	(bad)  
 8049a37:	ff 00                	incl   (%eax)

08049a38 <__DTOR_END__>:
 8049a38:	00 00                	add    %al,(%eax)
	...
Desensamblado de la sección .jcr:

08049a3c <__JCR_END__>:
 8049a3c:	00 00                	add    %al,(%eax)
	...
Desensamblado de la sección .got:

08049a40 <_GLOBAL_OFFSET_TABLE_>:
 8049a40:	48                   	dec    %eax
 8049a41:	99                   	cltd   
 8049a42:	04 08                	add    $0x8,%al
	...
 8049a4c:	a2 85 04 08 b2       	mov    %al,0xb2080485
 8049a51:	85 04 08             	test   %eax,(%eax,%ecx,1)
 8049a54:	c2 85 04             	ret    $0x485
 8049a57:	08 d2                	or     %dl,%dl
 8049a59:	85 04 08             	test   %eax,(%eax,%ecx,1)
 8049a5c:	e2 85                	loop   80499e3 <_DYNAMIC+0x9b>
 8049a5e:	04 08                	add    $0x8,%al
 8049a60:	f2 85 04 08          	repnz test %eax,(%eax,%ecx,1)
 8049a64:	02 86 04 08 12 86    	add    0x86120804(%esi),%al
 8049a6a:	04 08                	add    $0x8,%al
 8049a6c:	00 00                	add    %al,(%eax)
	...
Desensamblado de la sección .bss:

08049a70 <_ZSt4cout@@GLIBCPP_3.2>:
	...

08049afc <completed.1>:
 8049afc:	00 00                	add    %al,(%eax)
	...

08049b00 <_ZSt8__ioinit>:
 8049b00:	00 00                	add    %al,(%eax)
	...
Desensamblado de la sección .comment:

00000000 <.comment>:
   0:	00 47 43             	add    %al,0x43(%edi)
   3:	43                   	inc    %ebx
   4:	3a 20                	cmp    (%eax),%ah
   6:	28 47 4e             	sub    %al,0x4e(%edi)
   9:	55                   	push   %ebp
   a:	29 20                	sub    %esp,(%eax)
   c:	33 2e                	xor    (%esi),%ebp
   e:	33 2e                	xor    (%esi),%ebp
  10:	32 20                	xor    (%eax),%ah
  12:	32 30                	xor    (%eax),%dh
  14:	30 33                	xor    %dh,(%ebx)
  16:	31 30                	xor    %esi,(%eax)
  18:	32 32                	xor    (%edx),%dh
  1a:	20 28                	and    %ch,(%eax)
  1c:	52                   	push   %edx
  1d:	65 64 20 48 61       	and    %cl,%fs:%gs:0x61(%eax)
  22:	74 20                	je     44 <_init-0x8048530>
  24:	4c                   	dec    %esp
  25:	69 6e 75 78 20 33 2e 	imul   $0x2e332078,0x75(%esi),%ebp
  2c:	33 2e                	xor    (%esi),%ebp
  2e:	32 2d 31 29 00 00    	xor    0x2931,%ch
  34:	47                   	inc    %edi
  35:	43                   	inc    %ebx
  36:	43                   	inc    %ebx
  37:	3a 20                	cmp    (%eax),%ah
  39:	28 47 4e             	sub    %al,0x4e(%edi)
  3c:	55                   	push   %ebp
  3d:	29 20                	sub    %esp,(%eax)
  3f:	33 2e                	xor    (%esi),%ebp
  41:	33 2e                	xor    (%esi),%ebp
  43:	32 20                	xor    (%eax),%ah
  45:	32 30                	xor    (%eax),%dh
  47:	30 33                	xor    %dh,(%ebx)
  49:	31 30                	xor    %esi,(%eax)
  4b:	32 32                	xor    (%edx),%dh
  4d:	20 28                	and    %ch,(%eax)
  4f:	52                   	push   %edx
  50:	65 64 20 48 61       	and    %cl,%fs:%gs:0x61(%eax)
  55:	74 20                	je     77 <_init-0x80484fd>
  57:	4c                   	dec    %esp
  58:	69 6e 75 78 20 33 2e 	imul   $0x2e332078,0x75(%esi),%ebp
  5f:	33 2e                	xor    (%esi),%ebp
  61:	32 2d 31 29 00 00    	xor    0x2931,%ch
  67:	47                   	inc    %edi
  68:	43                   	inc    %ebx
  69:	43                   	inc    %ebx
  6a:	3a 20                	cmp    (%eax),%ah
  6c:	28 47 4e             	sub    %al,0x4e(%edi)
  6f:	55                   	push   %ebp
  70:	29 20                	sub    %esp,(%eax)
  72:	33 2e                	xor    (%esi),%ebp
  74:	33 2e                	xor    (%esi),%ebp
  76:	32 20                	xor    (%eax),%ah
  78:	32 30                	xor    (%eax),%dh
  7a:	30 33                	xor    %dh,(%ebx)
  7c:	31 30                	xor    %esi,(%eax)
  7e:	32 32                	xor    (%edx),%dh
  80:	20 28                	and    %ch,(%eax)
  82:	52                   	push   %edx
  83:	65 64 20 48 61       	and    %cl,%fs:%gs:0x61(%eax)
  88:	74 20                	je     aa <_init-0x80484ca>
  8a:	4c                   	dec    %esp
  8b:	69 6e 75 78 20 33 2e 	imul   $0x2e332078,0x75(%esi),%ebp
  92:	33 2e                	xor    (%esi),%ebp
  94:	32 2d 31 29 00 00    	xor    0x2931,%ch
  9a:	47                   	inc    %edi
  9b:	43                   	inc    %ebx
  9c:	43                   	inc    %ebx
  9d:	3a 20                	cmp    (%eax),%ah
  9f:	28 47 4e             	sub    %al,0x4e(%edi)
  a2:	55                   	push   %ebp
  a3:	29 20                	sub    %esp,(%eax)
  a5:	33 2e                	xor    (%esi),%ebp
  a7:	33 2e                	xor    (%esi),%ebp
  a9:	32 20                	xor    (%eax),%ah
  ab:	32 30                	xor    (%eax),%dh
  ad:	30 33                	xor    %dh,(%ebx)
  af:	31 30                	xor    %esi,(%eax)
  b1:	32 32                	xor    (%edx),%dh
  b3:	20 28                	and    %ch,(%eax)
  b5:	52                   	push   %edx
  b6:	65 64 20 48 61       	and    %cl,%fs:%gs:0x61(%eax)
  bb:	74 20                	je     dd <_init-0x8048497>
  bd:	4c                   	dec    %esp
  be:	69 6e 75 78 20 33 2e 	imul   $0x2e332078,0x75(%esi),%ebp
  c5:	33 2e                	xor    (%esi),%ebp
  c7:	32 2d 31 29 00 00    	xor    0x2931,%ch
  cd:	47                   	inc    %edi
  ce:	43                   	inc    %ebx
  cf:	43                   	inc    %ebx
  d0:	3a 20                	cmp    (%eax),%ah
  d2:	28 47 4e             	sub    %al,0x4e(%edi)
  d5:	55                   	push   %ebp
  d6:	29 20                	sub    %esp,(%eax)
  d8:	33 2e                	xor    (%esi),%ebp
  da:	33 2e                	xor    (%esi),%ebp
  dc:	32 20                	xor    (%eax),%ah
  de:	32 30                	xor    (%eax),%dh
  e0:	30 33                	xor    %dh,(%ebx)
  e2:	31 30                	xor    %esi,(%eax)
  e4:	32 32                	xor    (%edx),%dh
  e6:	20 28                	and    %ch,(%eax)
  e8:	52                   	push   %edx
  e9:	65 64 20 48 61       	and    %cl,%fs:%gs:0x61(%eax)
  ee:	74 20                	je     110 <_init-0x8048464>
  f0:	4c                   	dec    %esp
  f1:	69 6e 75 78 20 33 2e 	imul   $0x2e332078,0x75(%esi),%ebp
  f8:	33 2e                	xor    (%esi),%ebp
  fa:	32 2d 31 29 00 00    	xor    0x2931,%ch
 100:	47                   	inc    %edi
 101:	43                   	inc    %ebx
 102:	43                   	inc    %ebx
 103:	3a 20                	cmp    (%eax),%ah
 105:	28 47 4e             	sub    %al,0x4e(%edi)
 108:	55                   	push   %ebp
 109:	29 20                	sub    %esp,(%eax)
 10b:	33 2e                	xor    (%esi),%ebp
 10d:	33 2e                	xor    (%esi),%ebp
 10f:	32 20                	xor    (%eax),%ah
 111:	32 30                	xor    (%eax),%dh
 113:	30 33                	xor    %dh,(%ebx)
 115:	31 30                	xor    %esi,(%eax)
 117:	32 32                	xor    (%edx),%dh
 119:	20 28                	and    %ch,(%eax)
 11b:	52                   	push   %edx
 11c:	65 64 20 48 61       	and    %cl,%fs:%gs:0x61(%eax)
 121:	74 20                	je     143 <_init-0x8048431>
 123:	4c                   	dec    %esp
 124:	69 6e 75 78 20 33 2e 	imul   $0x2e332078,0x75(%esi),%ebp
 12b:	33 2e                	xor    (%esi),%ebp
 12d:	32                   	.byte 0x32
 12e:	2d                   	.byte 0x2d
 12f:	31 29                	xor    %ebp,(%ecx)
	...
Desensamblado de la sección .debug_aranges:

00000000 <.debug_aranges>:
   0:	1c 00                	sbb    $0x0,%al
   2:	00 00                	add    %al,(%eax)
   4:	02 00                	add    (%eax),%al
   6:	00 00                	add    %al,(%eax)
   8:	00 00                	add    %al,(%eax)
   a:	04 00                	add    $0x0,%al
   c:	00 00                	add    %al,(%eax)
   e:	00 00                	add    %al,(%eax)
  10:	cc                   	int3   
  11:	86 04 08             	xchg   %al,(%eax,%ecx,1)
  14:	c2 00 00             	ret    $0x0
	...
Desensamblado de la sección .debug_pubnames:

00000000 <.debug_pubnames>:
   0:	d7                   	xlat   %ds:(%ebx)
   1:	00 00                	add    %al,(%eax)
   3:	00 02                	add    %al,(%edx)
   5:	00 00                	add    %al,(%eax)
   7:	00 00                	add    %al,(%eax)
   9:	00 e5                	add    %ah,%ch
   b:	cd 00                	int    $0x0
   d:	00 8e ca 00 00 6d    	add    %cl,0x6d0000ca(%esi)
  13:	61                   	popa   
  14:	69 6e 00 0a cc 00 00 	imul   $0xcc0a,0x0(%esi),%ebp
  1b:	73 74                	jae    91 <_init-0x80484e3>
  1d:	64 3a 3a             	cmp    %fs:(%edx),%bh
  20:	5f                   	pop    %edi
  21:	53                   	push   %ebx
  22:	77 61                	ja     85 <_init-0x80484ef>
  24:	70 5f                	jo     85 <_init-0x80484ef>
  26:	6c                   	insb   (%dx),%es:(%edi)
  27:	6f                   	outsl  %ds:(%esi),(%dx)
  28:	63 6b 5f             	arpl   %bp,0x5f(%ebx)
  2b:	73 74                	jae    a1 <_init-0x80484d3>
  2d:	72 75                	jb     a4 <_init-0x80484d0>
  2f:	63 74 3c 30          	arpl   %si,0x30(%esp,%edi,1)
  33:	3e 3a 3a             	cmp    %ds:(%edx),%bh
  36:	5f                   	pop    %edi
  37:	53                   	push   %ebx
  38:	5f                   	pop    %edi
  39:	73 77                	jae    b2 <_init-0x80484c2>
  3b:	61                   	popa   
  3c:	70 5f                	jo     9d <_init-0x80484d7>
  3e:	6c                   	insb   (%dx),%es:(%edi)
  3f:	6f                   	outsl  %ds:(%esi),(%dx)
  40:	63 6b 00             	arpl   %bp,0x0(%ebx)
  43:	85 cd                	test   %ecx,%ebp
  45:	00 00                	add    %al,(%eax)
  47:	73 74                	jae    bd <_init-0x80484b7>
  49:	64 3a 3a             	cmp    %fs:(%edx),%bh
  4c:	62 61 73             	bound  %esp,0x73(%ecx)
  4f:	69 63 5f 73 74 72 65 	imul   $0x65727473,0x5f(%ebx),%esp
  56:	61                   	popa   
  57:	6d                   	insl   (%dx),%es:(%edi)
  58:	62 75 66             	bound  %esi,0x66(%ebp)
  5b:	3c 63                	cmp    $0x63,%al
  5d:	68 61 72 2c 20       	push   $0x202c7261
  62:	73 74                	jae    d8 <_init-0x804849c>
  64:	64 3a 3a             	cmp    %fs:(%edx),%bh
  67:	63 68 61             	arpl   %bp,0x61(%eax)
  6a:	72 5f                	jb     cb <_init-0x80484a9>
  6c:	74 72                	je     e0 <_init-0x8048494>
  6e:	61                   	popa   
  6f:	69 74 73 3c 63 68 61 	imul   $0x72616863,0x3c(%ebx,%esi,2),%esi
  76:	72 
  77:	3e 20 3e             	and    %bh,%ds:(%esi)
  7a:	3a 3a                	cmp    (%edx),%bh
  7c:	5f                   	pop    %edi
  7d:	53                   	push   %ebx
  7e:	5f                   	pop    %edi
  7f:	70 62                	jo     e3 <_init-0x8048491>
  81:	61                   	popa   
  82:	63 6b 5f             	arpl   %bp,0x5f(%ebx)
  85:	73 69                	jae    f0 <_init-0x8048484>
  87:	7a 65                	jp     ee <_init-0x8048486>
  89:	00 90 cd 00 00 73    	add    %dl,0x730000cd(%eax)
  8f:	74 64                	je     f5 <_init-0x804847f>
  91:	3a 3a                	cmp    (%edx),%bh
  93:	62 61 73             	bound  %esp,0x73(%ecx)
  96:	69 63 5f 73 74 72 65 	imul   $0x65727473,0x5f(%ebx),%esp
  9d:	61                   	popa   
  9e:	6d                   	insl   (%dx),%es:(%edi)
  9f:	62 75 66             	bound  %esi,0x66(%ebp)
  a2:	3c 77                	cmp    $0x77,%al
  a4:	63 68 61             	arpl   %bp,0x61(%eax)
  a7:	72 5f                	jb     108 <_init-0x804846c>
  a9:	74 2c                	je     d7 <_init-0x804849d>
  ab:	20 73 74             	and    %dh,0x74(%ebx)
  ae:	64 3a 3a             	cmp    %fs:(%edx),%bh
  b1:	63 68 61             	arpl   %bp,0x61(%eax)
  b4:	72 5f                	jb     115 <_init-0x804845f>
  b6:	74 72                	je     12a <_init-0x804844a>
  b8:	61                   	popa   
  b9:	69 74 73 3c 77 63 68 	imul   $0x61686377,0x3c(%ebx,%esi,2),%esi
  c0:	61 
  c1:	72 5f                	jb     122 <_init-0x8048452>
  c3:	74 3e                	je     103 <_init-0x8048471>
  c5:	20 3e                	and    %bh,(%esi)
  c7:	3a 3a                	cmp    (%edx),%bh
  c9:	5f                   	pop    %edi
  ca:	53                   	push   %ebx
  cb:	5f                   	pop    %edi
  cc:	70 62                	jo     130 <_init-0x8048444>
  ce:	61                   	popa   
  cf:	63 6b 5f             	arpl   %bp,0x5f(%ebx)
  d2:	73 69                	jae    13d <_init-0x8048437>
  d4:	7a 65                	jp     13b <_init-0x8048439>
  d6:	00 00                	add    %al,(%eax)
  d8:	00 00                	add    %al,(%eax)
	...
Desensamblado de la sección .debug_info:

00000000 <.debug_info>:
       0:	e1 cd                	loope  ffffffcf <_end+0xf7fb64cb>
       2:	00 00                	add    %al,(%eax)
       4:	02 00                	add    (%eax),%al
       6:	00 00                	add    %al,(%eax)
       8:	00 00                	add    %al,(%eax)
       a:	04 01                	add    $0x1,%al
       c:	00 00                	add    %al,(%eax)
       e:	00 00                	add    %al,(%eax)
      10:	8e 87 04 08 cc 86    	movl   0x86cc0804(%edi),%es
      16:	04 08                	add    $0x8,%al
      18:	b3 29                	mov    $0x29,%bl
      1a:	00 00                	add    %al,(%eax)
      1c:	82                   	(bad)  
      1d:	7f 00                	jg     1f <_init-0x8048555>
      1f:	00 5e b5             	add    %bl,0xffffffb5(%esi)
      22:	00 00                	add    %al,(%eax)
      24:	04 02                	add    $0x2,%al
      26:	c9                   	leave  
      27:	01 00                	add    %eax,(%eax)
      29:	00 04 10             	add    %al,(%eax,%edx,1)
      2c:	00 00                	add    %al,(%eax)
      2e:	38 02                	cmp    %al,(%edx)
      30:	35 03 60 8d 00       	xor    $0x8d6003,%eax
      35:	00 02                	add    %al,(%edx)
      37:	38 c9                	cmp    %cl,%cl
      39:	01 00                	add    %eax,(%eax)
      3b:	00 02                	add    %al,(%edx)
      3d:	23 00                	and    (%eax),%eax
      3f:	03 4e 3a             	add    0x3a(%esi),%ecx
      42:	00 00                	add    %al,(%eax)
      44:	02 39                	add    (%ecx),%bh
      46:	c9                   	leave  
      47:	01 00                	add    %eax,(%eax)
      49:	00 02                	add    %al,(%edx)
      4b:	23 04 03             	and    (%ebx,%eax,1),%eax
      4e:	ed                   	in     (%dx),%eax
      4f:	27                   	daa    
      50:	00 00                	add    %al,(%eax)
      52:	02 3f                	add    (%edi),%bh
      54:	c9                   	leave  
      55:	01 00                	add    %eax,(%eax)
      57:	00 02                	add    %al,(%edx)
      59:	23 08                	and    (%eax),%ecx
      5b:	03 67 1e             	add    0x1e(%edi),%esp
      5e:	00 00                	add    %al,(%eax)
      60:	02 45 c9             	add    0xffffffc9(%ebp),%al
      63:	01 00                	add    %eax,(%eax)
      65:	00 02                	add    %al,(%edx)
      67:	23 0c 03             	and    (%ebx,%eax,1),%ecx
      6a:	f1                   	icebp  
      6b:	1a 00                	sbb    (%eax),%al
      6d:	00 02                	add    %al,(%edx)
      6f:	46                   	inc    %esi
      70:	c9                   	leave  
      71:	01 00                	add    %eax,(%eax)
      73:	00 02                	add    %al,(%edx)
      75:	23 10                	and    (%eax),%edx
      77:	03 5c 8d 00          	add    0x0(%ebp,%ecx,4),%ebx
      7b:	00 02                	add    %al,(%edx)
      7d:	47                   	inc    %edi
      7e:	c9                   	leave  
      7f:	01 00                	add    %eax,(%eax)
      81:	00 02                	add    %al,(%edx)
      83:	23 14 03             	and    (%ebx,%eax,1),%edx
      86:	4a                   	dec    %edx
      87:	3a 00                	cmp    (%eax),%al
      89:	00 02                	add    %al,(%edx)
      8b:	48                   	dec    %eax
      8c:	c9                   	leave  
      8d:	01 00                	add    %eax,(%eax)
      8f:	00 02                	add    %al,(%edx)
      91:	23 18                	and    (%eax),%ebx
      93:	03 e9                	add    %ecx,%ebp
      95:	27                   	daa    
      96:	00 00                	add    %al,(%eax)
      98:	02 49 c9             	add    0xffffffc9(%ecx),%cl
      9b:	01 00                	add    %eax,(%eax)
      9d:	00 02                	add    %al,(%edx)
      9f:	23 1c 03             	and    (%ebx,%eax,1),%ebx
      a2:	ba ba 00 00 02       	mov    $0x20000ba,%edx
      a7:	4a                   	dec    %edx
      a8:	c9                   	leave  
      a9:	01 00                	add    %eax,(%eax)
      ab:	00 02                	add    %al,(%edx)
      ad:	23 20                	and    (%eax),%esp
      af:	03 00                	add    (%eax),%eax
      b1:	1f                   	pop    %ds
      b2:	00 00                	add    %al,(%eax)
      b4:	02 4b c9             	add    0xffffffc9(%ebx),%cl
      b7:	01 00                	add    %eax,(%eax)
      b9:	00 02                	add    %al,(%edx)
      bb:	23 24 03             	and    (%ebx,%eax,1),%esp
      be:	e1 3f                	loope  ff <_init-0x8048475>
      c0:	00 00                	add    %al,(%eax)
      c2:	02 4c cf 01          	add    0x1(%edi,%ecx,8),%cl
      c6:	00 00                	add    %al,(%eax)
      c8:	02 23                	add    (%ebx),%ah
      ca:	28 03                	sub    %al,(%ebx)
      cc:	e5 3f                	in     $0x3f,%eax
      ce:	00 00                	add    %al,(%eax)
      d0:	02 4d cf             	add    0xffffffcf(%ebp),%cl
      d3:	01 00                	add    %eax,(%eax)
      d5:	00 02                	add    %al,(%edx)
      d7:	23 29                	and    (%ecx),%ebp
      d9:	03 83 34 00 00 02    	add    0x2000034(%ebx),%eax
      df:	4f                   	dec    %edi
      e0:	cf                   	iret   
      e1:	01 00                	add    %eax,(%eax)
      e3:	00 02                	add    %al,(%edx)
      e5:	23 2a                	and    (%edx),%ebp
      e7:	03 99 35 00 00 02    	add    0x2000035(%ecx),%ebx
      ed:	51                   	push   %ecx
      ee:	cf                   	iret   
      ef:	01 00                	add    %eax,(%eax)
      f1:	00 02                	add    %al,(%edx)
      f3:	23 2b                	and    (%ebx),%ebp
      f5:	03 e9                	add    %ecx,%ebp
      f7:	8f 00                	popl   (%eax)
      f9:	00 02                	add    %al,(%edx)
      fb:	53                   	push   %ebx
      fc:	cf                   	iret   
      fd:	01 00                	add    %eax,(%eax)
      ff:	00 02                	add    %al,(%edx)
     101:	23 2c 03             	and    (%ebx,%eax,1),%ebp
     104:	81 2c 00 00 02 55 cf 	subl   $0xcf550200,(%eax,%eax,1)
     10b:	01 00                	add    %eax,(%eax)
     10d:	00 02                	add    %al,(%edx)
     10f:	23 2d 03 42 6f 00    	and    0x6f4203,%ebp
     115:	00 02                	add    %al,(%edx)
     117:	5c                   	pop    %esp
     118:	cf                   	iret   
     119:	01 00                	add    %eax,(%eax)
     11b:	00 02                	add    %al,(%edx)
     11d:	23 2e                	and    (%esi),%ebp
     11f:	03 8f 72 00 00 02    	add    0x2000072(%edi),%ecx
     125:	5d                   	pop    %ebp
     126:	cf                   	iret   
     127:	01 00                	add    %eax,(%eax)
     129:	00 02                	add    %al,(%edx)
     12b:	23 2f                	and    (%edi),%ebp
     12d:	03 7f 34             	add    0x34(%edi),%edi
     130:	00 00                	add    %al,(%eax)
     132:	02 60 cf             	add    0xffffffcf(%eax),%ah
     135:	01 00                	add    %eax,(%eax)
     137:	00 02                	add    %al,(%edx)
     139:	23 30                	and    (%eax),%esi
     13b:	03 95 35 00 00 02    	add    0x2000035(%ebp),%edx
     141:	62 cf                	bound  %ecx,%edi
     143:	01 00                	add    %eax,(%eax)
     145:	00 02                	add    %al,(%edx)
     147:	23 31                	and    (%ecx),%esi
     149:	03 e5                	add    %ebp,%esp
     14b:	8f 00                	popl   (%eax)
     14d:	00 02                	add    %al,(%edx)
     14f:	64                   	fs
     150:	cf                   	iret   
     151:	01 00                	add    %eax,(%eax)
     153:	00 02                	add    %al,(%edx)
     155:	23 32                	and    (%edx),%esi
     157:	03 7d 2c             	add    0x2c(%ebp),%edi
     15a:	00 00                	add    %al,(%eax)
     15c:	02 66 cf             	add    0xffffffcf(%esi),%ah
     15f:	01 00                	add    %eax,(%eax)
     161:	00 02                	add    %al,(%edx)
     163:	23 33                	and    (%ebx),%esi
     165:	03 3e                	add    (%esi),%edi
     167:	6f                   	outsl  %ds:(%esi),(%dx)
     168:	00 00                	add    %al,(%eax)
     16a:	02 6d cf             	add    0xffffffcf(%ebp),%ch
     16d:	01 00                	add    %eax,(%eax)
     16f:	00 02                	add    %al,(%edx)
     171:	23 34 03             	and    (%ebx,%eax,1),%esi
     174:	8b 72 00             	mov    0x0(%edx),%esi
     177:	00 02                	add    %al,(%edx)
     179:	6e                   	outsb  %ds:(%esi),(%dx)
     17a:	cf                   	iret   
     17b:	01 00                	add    %eax,(%eax)
     17d:	00 02                	add    %al,(%edx)
     17f:	23 35 04 a1 01 00    	and    0x1a104,%esi
     185:	00 01                	add    %al,(%ecx)
     187:	1f                   	pop    %ds
     188:	54                   	push   %esp
     189:	00 00                	add    %al,(%eax)
     18b:	58                   	pop    %eax
     18c:	c4 00                	les    (%eax),%eax
     18e:	00 d6                	add    %dl,%dh
     190:	01 00                	add    %eax,(%eax)
     192:	00 01                	add    %al,(%ecx)
     194:	01 05 dc 01 00 00    	add    %eax,0x1dc
     19a:	01 06                	add    %eax,(%esi)
     19c:	e2 01                	loop   19f <_init-0x80483d5>
     19e:	00 00                	add    %al,(%eax)
     1a0:	00 07                	add    %al,(%edi)
     1a2:	b9 01 00 00 01       	mov    $0x1000001,%ecx
     1a7:	04 10                	add    $0x10,%al
     1a9:	00 00                	add    %al,(%eax)
     1ab:	01 01                	add    %eax,(%ecx)
     1ad:	05 dc 01 00 00       	add    $0x1dc,%eax
     1b2:	01 06                	add    %eax,(%esi)
     1b4:	e2 01                	loop   1b7 <_init-0x80483bd>
     1b6:	00 00                	add    %al,(%eax)
     1b8:	00 08                	add    %cl,(%eax)
     1ba:	01 04 10             	add    %eax,(%eax,%edx,1)
     1bd:	00 00                	add    %al,(%eax)
     1bf:	01 01                	add    %eax,(%ecx)
     1c1:	05 dc 01 00 00       	add    $0x1dc,%eax
     1c6:	01 00                	add    %eax,(%eax)
     1c8:	00 09                	add    %cl,(%ecx)
     1ca:	04 cf                	add    $0xcf,%al
     1cc:	01 00                	add    %eax,(%eax)
     1ce:	00 0a                	add    %cl,(%edx)
     1d0:	d0 04 00             	rolb   (%eax,%eax,1)
     1d3:	00 01                	add    %al,(%ecx)
     1d5:	06                   	push   %es
     1d6:	0b 04 25 00 00 00 09 	or     0x9000000,%eax
     1dd:	04 25                	add    $0x25,%al
     1df:	00 00                	add    %al,(%eax)
     1e1:	00 0b                	add    %cl,(%ebx)
     1e3:	04 e8                	add    $0xe8,%al
     1e5:	01 00                	add    %eax,(%eax)
     1e7:	00 0c 25 00 00 00 02 	add    %cl,0x2000000
     1ee:	87 02                	xchg   %eax,(%edx)
     1f0:	00 00                	add    %al,(%eax)
     1f2:	cb                   	lret   
     1f3:	97                   	xchg   %eax,%edi
     1f4:	00 00                	add    %al,(%eax)
     1f6:	74 03                	je     1fb <_init-0x8048379>
     1f8:	1d 03 34 71 00       	sbb    $0x713403,%eax
     1fd:	00 03                	add    %al,(%ebx)
     1ff:	1f                   	pop    %ds
     200:	87 02                	xchg   %eax,(%edx)
     202:	00 00                	add    %al,(%eax)
     204:	02 23                	add    (%ebx),%ah
     206:	00 03                	add    %al,(%ebx)
     208:	6e                   	outsb  %ds:(%esi),(%dx)
     209:	14 00                	adc    $0x0,%al
     20b:	00 03                	add    %al,(%ebx)
     20d:	22 aa 02 00 00 02    	and    0x2000002(%edx),%ch
     213:	23 34 03             	and    (%ebx,%eax,1),%esi
     216:	ac                   	lods   %ds:(%esi),%al
     217:	6d                   	insl   (%dx),%es:(%edi)
     218:	00 00                	add    %al,(%eax)
     21a:	03 23                	add    (%ebx),%esp
     21c:	bc 02 00 00 02       	mov    $0x2000002,%esp
     221:	23 38                	and    (%eax),%edi
     223:	03 75 86             	add    0xffffff86(%ebp),%esi
     226:	00 00                	add    %al,(%eax)
     228:	03 24 bc             	add    (%esp,%edi,4),%esp
     22b:	02 00                	add    (%eax),%al
     22d:	00 02                	add    %al,(%edx)
     22f:	23 3c 03             	and    (%ebx,%eax,1),%edi
     232:	b4 26                	mov    $0x26,%ah
     234:	00 00                	add    %al,(%eax)
     236:	03 27                	add    (%edi),%esp
     238:	ce                   	into   
     239:	02 00                	add    (%eax),%al
     23b:	00 02                	add    %al,(%edx)
     23d:	23 40 04             	and    0x4(%eax),%eax
     240:	5f                   	pop    %edi
     241:	02 00                	add    (%eax),%al
     243:	00 01                	add    %al,(%ecx)
     245:	1f                   	pop    %ds
     246:	54                   	push   %esp
     247:	00 00                	add    %al,(%eax)
     249:	fd                   	std    
     24a:	50                   	push   %eax
     24b:	00 00                	add    %al,(%eax)
     24d:	e9 02 00 00 01       	jmp    1000254 <_init-0x7048320>
     252:	01 05 ef 02 00 00    	add    %eax,0x2ef
     258:	01 06                	add    %eax,(%esi)
     25a:	f5                   	cmc    
     25b:	02 00                	add    (%eax),%al
     25d:	00 00                	add    %al,(%eax)
     25f:	07                   	pop    %es
     260:	77 02                	ja     264 <_init-0x8048310>
     262:	00 00                	add    %al,(%eax)
     264:	01 cb                	add    %ecx,%ebx
     266:	97                   	xchg   %eax,%edi
     267:	00 00                	add    %al,(%eax)
     269:	01 01                	add    %eax,(%ecx)
     26b:	05 ef 02 00 00       	add    $0x2ef,%eax
     270:	01 06                	add    %eax,(%esi)
     272:	f5                   	cmc    
     273:	02 00                	add    (%eax),%al
     275:	00 00                	add    %al,(%eax)
     277:	08 01                	or     %al,(%ecx)
     279:	cb                   	lret   
     27a:	97                   	xchg   %eax,%edi
     27b:	00 00                	add    %al,(%eax)
     27d:	01 01                	add    %eax,(%ecx)
     27f:	05 ef 02 00 00       	add    $0x2ef,%eax
     284:	01 00                	add    %eax,(%eax)
     286:	00 0d 97 02 00 00    	add    %cl,0x297
     28c:	a4                   	movsb  %ds:(%esi),%es:(%edi)
     28d:	02 00                	add    (%eax),%al
     28f:	00 0e                	add    %cl,(%esi)
     291:	97                   	xchg   %eax,%edi
     292:	02 00                	add    (%eax),%al
     294:	00 0c 00             	add    %cl,(%eax,%eax,1)
     297:	0a 91 ad 00 00 04    	or     0x40000ad(%ecx),%dl
     29d:	07                   	pop    %es
     29e:	0f 3f                	(bad)  
     2a0:	5d                   	pop    %ebp
     2a1:	00 00                	add    %al,(%eax)
     2a3:	01 09                	add    %ecx,(%ecx)
     2a5:	04 9e                	add    $0x9e,%al
     2a7:	02 00                	add    (%eax),%al
     2a9:	00 09                	add    %cl,(%ecx)
     2ab:	04 b0                	add    $0xb0,%al
     2ad:	02 00                	add    (%eax),%al
     2af:	00 0c b5 02 00 00 0a 	add    %cl,0xa000002(,%esi,4)
     2b6:	3b 04 00             	cmp    (%eax,%eax,1),%eax
     2b9:	00 02                	add    %al,(%edx)
     2bb:	07                   	pop    %es
     2bc:	09 04 c2             	or     %eax,(%edx,%eax,8)
     2bf:	02 00                	add    (%eax),%al
     2c1:	00 0c c7             	add    %cl,(%edi,%eax,8)
     2c4:	02 00                	add    (%eax),%al
     2c6:	00 10                	add    %dl,(%eax)
     2c8:	69 6e 74 00 04 05 0d 	imul   $0xd050400,0x74(%esi),%ebp
     2cf:	de 02                	fiadd  (%edx)
     2d1:	00 00                	add    %al,(%eax)
     2d3:	de 02                	fiadd  (%edx)
     2d5:	00 00                	add    %al,(%eax)
     2d7:	0e                   	push   %cs
     2d8:	97                   	xchg   %eax,%edi
     2d9:	02 00                	add    (%eax),%al
     2db:	00 0c 00             	add    %cl,(%eax,%eax,1)
     2de:	09 04 e4             	or     %eax,(%esp,8)
     2e1:	02 00                	add    (%eax),%al
     2e3:	00 0c cf             	add    %cl,(%edi,%ecx,8)
     2e6:	01 00                	add    %eax,(%eax)
     2e8:	00 0b                	add    %cl,(%ebx)
     2ea:	04 ed                	add    $0xed,%al
     2ec:	01 00                	add    %eax,(%eax)
     2ee:	00 09                	add    %cl,(%ecx)
     2f0:	04 ed                	add    $0xed,%al
     2f2:	01 00                	add    %eax,(%eax)
     2f4:	00 0b                	add    %cl,(%ebx)
     2f6:	04 fb                	add    $0xfb,%al
     2f8:	02 00                	add    (%eax),%al
     2fa:	00 0c ed 01 00 00 11 	add    %cl,0x11000001(,%ebp,8)
     301:	a2 9e 00 00 03       	mov    %al,0x300009e
     306:	28 ef                	sub    %ch,%bh
     308:	02 00                	add    (%eax),%al
     30a:	00 11                	add    %dl,(%ecx)
     30c:	a4                   	movsb  %ds:(%esi),%es:(%edi)
     30d:	9e                   	sahf   
     30e:	00 00                	add    %al,(%eax)
     310:	02 94 00 03 00 00 11 	add    0x11000003(%eax,%eax,1),%dl
     317:	83 c2 00             	add    $0x0,%edx
     31a:	00 04 22             	add    %al,(%edx,1)
     31d:	21 03                	and    %eax,(%ebx)
     31f:	00 00                	add    %al,(%eax)
     321:	12 04 11             	adc    (%ecx,%edx,1),%al
     324:	16                   	push   %ss
     325:	17                   	pop    %ss
     326:	00 00                	add    %al,(%eax)
     328:	04 25                	add    $0x25,%al
     32a:	c7 02 00 00 11 b8    	movl   $0xb8110000,(%edx)
     330:	9e                   	sahf   
     331:	00 00                	add    %al,(%eax)
     333:	05 d5 39 03 00       	add    $0x339d5,%eax
     338:	00 0a                	add    %cl,(%edx)
     33a:	91                   	xchg   %eax,%ecx
     33b:	ad                   	lods   %ds:(%esi),%eax
     33c:	00 00                	add    %al,(%eax)
     33e:	04 07                	add    $0x7,%al
     340:	11 83 62 00 00 06    	adc    %eax,0x6000062(%ebx)
     346:	1e                   	push   %ds
     347:	21 03                	and    %eax,(%ebx)
     349:	00 00                	add    %al,(%eax)
     34b:	11 68 74             	adc    %ebp,0x74(%eax)
     34e:	00 00                	add    %al,(%eax)
     350:	07                   	pop    %es
     351:	22 56 03             	and    0x3(%esi),%dl
     354:	00 00                	add    %al,(%eax)
     356:	0a c7                	or     %bh,%al
     358:	04 00                	add    $0x0,%al
     35a:	00 01                	add    %al,(%ecx)
     35c:	08 11                	or     %dl,(%ecx)
     35e:	75 0a                	jne    36a <_init-0x804820a>
     360:	00 00                	add    %al,(%eax)
     362:	07                   	pop    %es
     363:	23 b5 02 00 00 11    	and    0x11000002(%ebp),%esi
     369:	63 0c 00             	arpl   %cx,(%eax,%eax,1)
     36c:	00 07                	add    %al,(%edi)
     36e:	24 39                	and    $0x39,%al
     370:	03 00                	add    (%eax),%eax
     372:	00 11                	add    %dl,(%ecx)
     374:	5d                   	pop    %ebp
     375:	15 00 00 07 25       	adc    $0x25070000,%eax
     37a:	7e 03                	jle    37f <_init-0x80481f5>
     37c:	00 00                	add    %al,(%eax)
     37e:	0a 8c ad 00 00 04 07 	or     0x7040000(%ebp,%ebp,4),%cl
     385:	11 1b                	adc    %ebx,(%ebx)
     387:	27                   	daa    
     388:	00 00                	add    %al,(%eax)
     38a:	07                   	pop    %es
     38b:	28 90 03 00 00 0a    	sub    %dl,0xa000003(%eax)
     391:	c9                   	leave  
     392:	04 00                	add    $0x0,%al
     394:	00 01                	add    %al,(%ecx)
     396:	06                   	push   %es
     397:	11 59 8f             	adc    %ebx,0xffffff8f(%ecx)
     39a:	00 00                	add    %al,(%eax)
     39c:	07                   	pop    %es
     39d:	29 56 03             	sub    %edx,0x3(%esi)
     3a0:	00 00                	add    %al,(%eax)
     3a2:	11 39                	adc    %edi,(%ecx)
     3a4:	61                   	popa   
     3a5:	00 00                	add    %al,(%eax)
     3a7:	07                   	pop    %es
     3a8:	2a ad 03 00 00 0a    	sub    0xa000003(%ebp),%ch
     3ae:	88 75 00             	mov    %dh,0x0(%ebp)
     3b1:	00 02                	add    %al,(%edx)
     3b3:	05 11 9f 47 00       	add    $0x479f11,%eax
     3b8:	00 07                	add    %al,(%edi)
     3ba:	2b b5 02 00 00 11    	sub    0x11000002(%ebp),%esi
     3c0:	36                   	ss
     3c1:	c3                   	ret    
     3c2:	00 00                	add    %al,(%eax)
     3c4:	07                   	pop    %es
     3c5:	2c c7                	sub    $0xc7,%al
     3c7:	02 00                	add    (%eax),%al
     3c9:	00 11                	add    %dl,(%ecx)
     3cb:	d8 2d 00 00 07 2d    	fsubrs 0x2d070000
     3d1:	39 03                	cmp    %eax,(%ebx)
     3d3:	00 00                	add    %al,(%eax)
     3d5:	11 14 57             	adc    %edx,(%edi,%edx,2)
     3d8:	00 00                	add    %al,(%eax)
     3da:	07                   	pop    %es
     3db:	32 e0                	xor    %al,%ah
     3dd:	03 00                	add    (%eax),%eax
     3df:	00 0a                	add    %cl,(%edx)
     3e1:	a4                   	movsb  %ds:(%esi),%es:(%edi)
     3e2:	16                   	push   %ss
     3e3:	00 00                	add    %al,(%eax)
     3e5:	08 05 11 20 3d 00    	or     %al,0x3d2011
     3eb:	00 07                	add    %al,(%edi)
     3ed:	33 f2                	xor    %edx,%esi
     3ef:	03 00                	add    (%eax),%eax
     3f1:	00 0a                	add    %cl,(%edx)
     3f3:	87 ad 00 00 08 07    	xchg   %ebp,0x7080000(%ebp)
     3f9:	11 3e                	adc    %edi,(%esi)
     3fb:	41                   	inc    %ecx
     3fc:	00 00                	add    %al,(%eax)
     3fe:	07                   	pop    %es
     3ff:	3b e0                	cmp    %eax,%esp
     401:	03 00                	add    (%eax),%eax
     403:	00 11                	add    %dl,(%ecx)
     405:	6a 7a                	push   $0x7a
     407:	00 00                	add    %al,(%eax)
     409:	07                   	pop    %es
     40a:	3c f2                	cmp    $0xf2,%al
     40c:	03 00                	add    (%eax),%eax
     40e:	00 11                	add    %dl,(%ecx)
     410:	0e                   	push   %cs
     411:	76 00                	jbe    413 <_init-0x8048161>
     413:	00 07                	add    %al,(%edi)
     415:	88 f2                	mov    %dh,%dl
     417:	03 00                	add    (%eax),%eax
     419:	00 11                	add    %dl,(%ecx)
     41b:	8f 78 00             	popl   0x0(%eax)
     41e:	00 07                	add    %al,(%edi)
     420:	89 39                	mov    %edi,(%ecx)
     422:	03 00                	add    (%eax),%eax
     424:	00 11                	add    %dl,(%ecx)
     426:	79 8d                	jns    3b5 <_init-0x80481bf>
     428:	00 00                	add    %al,(%eax)
     42a:	07                   	pop    %es
     42b:	8a 39                	mov    (%ecx),%bh
     42d:	03 00                	add    (%eax),%eax
     42f:	00 11                	add    %dl,(%ecx)
     431:	4d                   	dec    %ebp
     432:	3f                   	aas    
     433:	00 00                	add    %al,(%eax)
     435:	07                   	pop    %es
     436:	8b 7e 03             	mov    0x3(%esi),%edi
     439:	00 00                	add    %al,(%eax)
     43b:	11 dd                	adc    %ebx,%ebp
     43d:	b6 00                	mov    $0x0,%dh
     43f:	00 07                	add    %al,(%edi)
     441:	8c f2                	mov    %?,%edx
     443:	03 00                	add    (%eax),%eax
     445:	00 11                	add    %dl,(%ecx)
     447:	56                   	push   %esi
     448:	ba 00 00 07 8d       	mov    $0x8d070000,%edx
     44d:	39 03                	cmp    %eax,(%ebx)
     44f:	00 00                	add    %al,(%eax)
     451:	11 c6                	adc    %eax,%esi
     453:	3b 00                	cmp    (%eax),%eax
     455:	00 07                	add    %al,(%edi)
     457:	8e 39                	movl   (%ecx),%?
     459:	03 00                	add    (%eax),%eax
     45b:	00 11                	add    %dl,(%ecx)
     45d:	95                   	xchg   %eax,%ebp
     45e:	17                   	pop    %ss
     45f:	00 00                	add    %al,(%eax)
     461:	07                   	pop    %es
     462:	8f 67 04             	popl   0x4(%edi)
     465:	00 00                	add    %al,(%eax)
     467:	0a a9 16 00 00 04    	or     0x4000016(%ecx),%ch
     46d:	05 11 94 26 00       	add    $0x269411,%eax
     472:	00 07                	add    %al,(%edi)
     474:	90                   	nop    
     475:	e0 03                	loopne 47a <_init-0x80480fa>
     477:	00 00                	add    %al,(%eax)
     479:	11 36                	adc    %esi,(%esi)
     47b:	11 00                	adc    %eax,(%eax)
     47d:	00 07                	add    %al,(%edi)
     47f:	91                   	xchg   %eax,%ecx
     480:	c7 02 00 00 11 a2    	movl   $0xa2110000,(%edx)
     486:	11 00                	adc    %eax,(%eax)
     488:	00 07                	add    %al,(%edi)
     48a:	92                   	xchg   %eax,%edx
     48b:	8f 04 00             	popl   (%eax,%eax,1)
     48e:	00 02                	add    %al,(%edx)
     490:	f3 04 00             	repz add $0x0,%al
     493:	00 a2 11 00 00 08    	add    %ah,0x8000011(%edx)
     499:	07                   	pop    %es
     49a:	92                   	xchg   %eax,%edx
     49b:	03 db                	add    %ebx,%ebx
     49d:	97                   	xchg   %eax,%edi
     49e:	00 00                	add    %al,(%eax)
     4a0:	07                   	pop    %es
     4a1:	92                   	xchg   %eax,%edx
     4a2:	f3 04 00             	repz add $0x0,%al
     4a5:	00 02                	add    %al,(%edx)
     4a7:	23 00                	and    (%eax),%eax
     4a9:	13 2e                	adc    (%esi),%ebp
     4ab:	5f                   	pop    %edi
     4ac:	32 00                	xor    (%eax),%al
     4ae:	8f 04 00             	popl   (%eax,%eax,1)
     4b1:	00 14 cd 04 00 00 1f 	add    %dl,0x1f000004(,%ecx,8)
     4b8:	54                   	push   %esp
     4b9:	00 00                	add    %al,(%eax)
     4bb:	03 05 00 00 01 01    	add    0x1010000,%eax
     4c1:	05 09 05 00 00       	add    $0x509,%eax
     4c6:	01 06                	add    %eax,(%esi)
     4c8:	0f 05                	syscall 
     4ca:	00 00                	add    %al,(%eax)
     4cc:	00 15 e4 04 00 00    	add    %dl,0x4e4
     4d2:	2e                   	cs
     4d3:	5f                   	pop    %edi
     4d4:	32 00                	xor    (%eax),%al
     4d6:	01 01                	add    %eax,(%ecx)
     4d8:	05 09 05 00 00       	add    $0x509,%eax
     4dd:	01 06                	add    %eax,(%esi)
     4df:	0f 05                	syscall 
     4e1:	00 00                	add    %al,(%eax)
     4e3:	00 16                	add    %dl,(%esi)
     4e5:	2e                   	cs
     4e6:	5f                   	pop    %edi
     4e7:	32 00                	xor    (%eax),%al
     4e9:	01 01                	add    %eax,(%ecx)
     4eb:	05 09 05 00 00       	add    $0x509,%eax
     4f0:	01 00                	add    %eax,(%eax)
     4f2:	00 0d 03 05 00 00    	add    %cl,0x503
     4f8:	c7 02 00 00 0e 97    	movl   $0x970e0000,(%edx)
     4fe:	02 00                	add    (%eax),%al
     500:	00 01                	add    %al,(%ecx)
     502:	00 0b                	add    %cl,(%ebx)
     504:	04 8f                	add    $0x8f,%al
     506:	04 00                	add    $0x0,%al
     508:	00 09                	add    %cl,(%ecx)
     50a:	04 8f                	add    $0x8f,%al
     50c:	04 00                	add    $0x0,%al
     50e:	00 0b                	add    %cl,(%ebx)
     510:	04 15                	add    $0x15,%al
     512:	05 00 00 0c 8f       	add    $0x8f0c0000,%eax
     517:	04 00                	add    $0x0,%al
     519:	00 11                	add    %dl,(%ecx)
     51b:	bc bc 00 00 07       	mov    $0x70000bc,%esp
     520:	93                   	xchg   %eax,%ebx
     521:	67 04 00             	addr16 add $0x0,%al
     524:	00 11                	add    %dl,(%ecx)
     526:	f9                   	stc    
     527:	7e 00                	jle    529 <_init-0x804804b>
     529:	00 07                	add    %al,(%edi)
     52b:	94                   	xchg   %eax,%esp
     52c:	7e 03                	jle    531 <_init-0x8048043>
     52e:	00 00                	add    %al,(%eax)
     530:	11 c5                	adc    %eax,%ebp
     532:	62 00                	bound  %eax,(%eax)
     534:	00 07                	add    %al,(%edi)
     536:	95                   	xchg   %eax,%ebp
     537:	f2 03 00             	repnz add (%eax),%eax
     53a:	00 11                	add    %dl,(%ecx)
     53c:	4e                   	dec    %esi
     53d:	3e 00 00             	add    %al,%ds:(%eax)
     540:	07                   	pop    %es
     541:	96                   	xchg   %eax,%esi
     542:	39 03                	cmp    %eax,(%ebx)
     544:	00 00                	add    %al,(%eax)
     546:	11 78 2f             	adc    %edi,0x2f(%eax)
     549:	00 00                	add    %al,(%eax)
     54b:	07                   	pop    %es
     54c:	97                   	xchg   %eax,%edi
     54d:	67 04 00             	addr16 add $0x0,%al
     550:	00 11                	add    %dl,(%ecx)
     552:	01 33                	add    %esi,(%ebx)
     554:	00 00                	add    %al,(%eax)
     556:	07                   	pop    %es
     557:	98                   	cwtl   
     558:	39 03                	cmp    %eax,(%ebx)
     55a:	00 00                	add    %al,(%eax)
     55c:	11 ee                	adc    %ebp,%esi
     55e:	4e                   	dec    %esi
     55f:	00 00                	add    %al,(%eax)
     561:	07                   	pop    %es
     562:	99                   	cltd   
     563:	67 04 00             	addr16 add $0x0,%al
     566:	00 11                	add    %dl,(%ecx)
     568:	a1 c0 00 00 07       	mov    0x70000c0,%eax
     56d:	9b                   	fwait
     56e:	c7 02 00 00 11 98    	movl   $0x98110000,(%edx)
     574:	08 00                	or     %al,(%eax)
     576:	00 07                	add    %al,(%edi)
     578:	9c                   	pushf  
     579:	67 04 00             	addr16 add $0x0,%al
     57c:	00 11                	add    %dl,(%ecx)
     57e:	18 a9 00 00 07 9d    	sbb    %ch,0x9d070000(%ecx)
     584:	c7 02 00 00 11 9a    	movl   $0x9a110000,(%edx)
     58a:	5f                   	pop    %edi
     58b:	00 00                	add    %al,(%eax)
     58d:	07                   	pop    %es
     58e:	a0 c7 02 00 00       	mov    0x2c7,%al
     593:	11 ba 25 00 00 07    	adc    %edi,0x7000025(%edx)
     599:	a3 c7 02 00 00       	mov    %eax,0x2c7
     59e:	11 b3 9e 00 00 07    	adc    %esi,0x700009e(%ebx)
     5a4:	a6                   	cmpsb  %es:(%edi),%ds:(%esi)
     5a5:	67 04 00             	addr16 add $0x0,%al
     5a8:	00 11                	add    %dl,(%ecx)
     5aa:	06                   	push   %es
     5ab:	0a 00                	or     (%eax),%al
     5ad:	00 07                	add    %al,(%edi)
     5af:	ab                   	stos   %eax,%es:(%edi)
     5b0:	67 04 00             	addr16 add $0x0,%al
     5b3:	00 11                	add    %dl,(%ecx)
     5b5:	3e 83 00 00          	addl   $0x0,%ds:(%eax)
     5b9:	07                   	pop    %es
     5ba:	ac                   	lods   %ds:(%esi),%al
     5bb:	e0 03                	loopne 5c0 <_init-0x8047fb4>
     5bd:	00 00                	add    %al,(%eax)
     5bf:	11 50 58             	adc    %edx,0x58(%eax)
     5c2:	00 00                	add    %al,(%eax)
     5c4:	07                   	pop    %es
     5c5:	af                   	scas   %es:(%edi),%eax
     5c6:	7e 03                	jle    5cb <_init-0x8047fa9>
     5c8:	00 00                	add    %al,(%eax)
     5ca:	11 3c 78             	adc    %edi,(%eax,%edi,2)
     5cd:	00 00                	add    %al,(%eax)
     5cf:	07                   	pop    %es
     5d0:	b0 f2                	mov    $0xf2,%al
     5d2:	03 00                	add    (%eax),%eax
     5d4:	00 11                	add    %dl,(%ecx)
     5d6:	16                   	push   %ss
     5d7:	08 00                	or     %al,(%eax)
     5d9:	00 07                	add    %al,(%edi)
     5db:	b3 7e                	mov    $0x7e,%bl
     5dd:	03 00                	add    (%eax),%eax
     5df:	00 11                	add    %dl,(%ecx)
     5e1:	b0 6a                	mov    $0x6a,%al
     5e3:	00 00                	add    %al,(%eax)
     5e5:	07                   	pop    %es
     5e6:	b4 f2                	mov    $0xf2,%ah
     5e8:	03 00                	add    (%eax),%eax
     5ea:	00 11                	add    %dl,(%ecx)
     5ec:	2d 07 00 00 07       	sub    $0x7000007,%eax
     5f1:	b6 c7                	mov    $0xc7,%dh
     5f3:	02 00                	add    (%eax),%al
     5f5:	00 11                	add    %dl,(%ecx)
     5f7:	f0 5f                	lock pop %edi
     5f9:	00 00                	add    %al,(%eax)
     5fb:	07                   	pop    %es
     5fc:	ba 6e 04 00 00       	mov    $0x46e,%edx
     601:	11 1c 53             	adc    %ebx,(%ebx,%edx,2)
     604:	00 00                	add    %al,(%eax)
     606:	07                   	pop    %es
     607:	bb 0c 06 00 00       	mov    $0x60c,%ebx
     60c:	09 04 f9             	or     %eax,(%ecx,%edi,8)
     60f:	03 00                	add    (%eax),%eax
     611:	00 11                	add    %dl,(%ecx)
     613:	62 c9                	bound  %ecx,%ecx
     615:	00 00                	add    %al,(%eax)
     617:	07                   	pop    %es
     618:	bc c9 01 00 00       	mov    $0x1c9,%esp
     61d:	11 aa 47 00 00 07    	adc    %ebp,0x7000047(%edx)
     623:	bf c7 02 00 00       	mov    $0x2c7,%edi
     628:	11 8f 30 00 00 07    	adc    %ecx,0x7000030(%edi)
     62e:	c2 39 03             	ret    $0x339
     631:	00 00                	add    %al,(%eax)
     633:	11 b5 06 00 00 05    	adc    %esi,0x5000006(%ebp)
     639:	97                   	xchg   %eax,%edi
     63a:	c7 02 00 00 11 e5    	movl   $0xe5110000,(%edx)
     640:	04 00                	add    $0x0,%al
     642:	00 08                	add    %cl,(%eax)
     644:	2e                   	cs
     645:	49                   	dec    %ecx
     646:	06                   	push   %es
     647:	00 00                	add    %al,(%eax)
     649:	17                   	pop    %ss
     64a:	24 08                	and    $0x8,%al
     64c:	00 00                	add    %al,(%eax)
     64e:	e1 04                	loope  654 <_init-0x8047f20>
     650:	00 00                	add    %al,(%eax)
     652:	94                   	xchg   %eax,%esp
     653:	0d 08 01 18 91       	or     $0x91180108,%eax
     658:	08 00                	or     %al,(%eax)
     65a:	00 0d 09 01 c7 02    	add    %cl,0x2c70109
     660:	00 00                	add    %al,(%eax)
     662:	02 23                	add    (%ebx),%ah
     664:	00 18                	add    %bl,(%eax)
     666:	0b 1a                	or     (%edx),%ebx
     668:	00 00                	add    %al,(%eax)
     66a:	0d 0e 01 c9 01       	or     $0x1c9010e,%eax
     66f:	00 00                	add    %al,(%eax)
     671:	02 23                	add    (%ebx),%ah
     673:	04 18                	add    $0x18,%al
     675:	9a c4 00 00 0d 0f 01 	lcall  $0x10f,$0xd0000c4
     67c:	c9                   	leave  
     67d:	01 00                	add    %eax,(%eax)
     67f:	00 02                	add    %al,(%edx)
     681:	23 08                	and    (%eax),%ecx
     683:	18 24 27             	sbb    %ah,(%edi,1)
     686:	00 00                	add    %al,(%eax)
     688:	0d 10 01 c9 01       	or     $0x1c90110,%eax
     68d:	00 00                	add    %al,(%eax)
     68f:	02 23                	add    (%ebx),%ah
     691:	0c 18                	or     $0x18,%al
     693:	9c                   	pushf  
     694:	34 00                	xor    $0x0,%al
     696:	00 0d 11 01 c9 01    	add    %cl,0x1c90111
     69c:	00 00                	add    %al,(%eax)
     69e:	02 23                	add    (%ebx),%ah
     6a0:	10 18                	adc    %bl,(%eax)
     6a2:	51                   	push   %ecx
     6a3:	ad                   	lods   %ds:(%esi),%eax
     6a4:	00 00                	add    %al,(%eax)
     6a6:	0d 12 01 c9 01       	or     $0x1c90112,%eax
     6ab:	00 00                	add    %al,(%eax)
     6ad:	02 23                	add    (%ebx),%ah
     6af:	14 18                	adc    $0x18,%al
     6b1:	f2 a5                	repnz movsl %ds:(%esi),%es:(%edi)
     6b3:	00 00                	add    %al,(%eax)
     6b5:	0d 13 01 c9 01       	or     $0x1c90113,%eax
     6ba:	00 00                	add    %al,(%eax)
     6bc:	02 23                	add    (%ebx),%ah
     6be:	18 18                	sbb    %bl,(%eax)
     6c0:	b2 6c                	mov    $0x6c,%dl
     6c2:	00 00                	add    %al,(%eax)
     6c4:	0d 14 01 c9 01       	or     $0x1c90114,%eax
     6c9:	00 00                	add    %al,(%eax)
     6cb:	02 23                	add    (%ebx),%ah
     6cd:	1c 18                	sbb    $0x18,%al
     6cf:	0a 80 00 00 0d 15    	or     0x150d0000(%eax),%al
     6d5:	01 c9                	add    %ecx,%ecx
     6d7:	01 00                	add    %eax,(%eax)
     6d9:	00 02                	add    %al,(%edx)
     6db:	23 20                	and    (%eax),%esp
     6dd:	18 23                	sbb    %ah,(%ebx)
     6df:	7d 00                	jge    6e1 <_init-0x8047e93>
     6e1:	00 0d 17 01 c9 01    	add    %cl,0x1c90117
     6e7:	00 00                	add    %al,(%eax)
     6e9:	02 23                	add    (%ebx),%ah
     6eb:	24 18                	and    $0x18,%al
     6ed:	bf 70 00 00 0d       	mov    $0xd000070,%edi
     6f2:	18 01                	sbb    %al,(%ecx)
     6f4:	c9                   	leave  
     6f5:	01 00                	add    %eax,(%eax)
     6f7:	00 02                	add    %al,(%edx)
     6f9:	23 28                	and    (%eax),%ebp
     6fb:	18 d0                	sbb    %dl,%al
     6fd:	2f                   	das    
     6fe:	00 00                	add    %al,(%eax)
     700:	0d 19 01 c9 01       	or     $0x1c90119,%eax
     705:	00 00                	add    %al,(%eax)
     707:	02 23                	add    (%ebx),%ah
     709:	2c 18                	sub    $0x18,%al
     70b:	0a a6 00 00 0d 1b    	or     0x1b0d0000(%esi),%ah
     711:	01 88 11 00 00 02    	add    %ecx,0x2000011(%eax)
     717:	23 30                	and    (%eax),%esi
     719:	18 89 74 00 00 0d    	sbb    %cl,0xd000074(%ecx)
     71f:	1d 01 8e 11 00       	sbb    $0x118e01,%eax
     724:	00 02                	add    %al,(%edx)
     726:	23 34 18             	and    (%eax,%ebx,1),%esi
     729:	d2 5b 00             	rcrb   %cl,0x0(%ebx)
     72c:	00 0d 1f 01 c7 02    	add    %cl,0x2c7011f
     732:	00 00                	add    %al,(%eax)
     734:	02 23                	add    (%ebx),%ah
     736:	38 18                	cmp    %bl,(%eax)
     738:	6e                   	outsb  %ds:(%esi),(%dx)
     739:	1a 00                	sbb    (%eax),%al
     73b:	00 0d 23 01 c7 02    	add    %cl,0x2c70123
     741:	00 00                	add    %al,(%eax)
     743:	02 23                	add    (%ebx),%ah
     745:	3c 18                	cmp    $0x18,%al
     747:	d2                   	(bad)  
     748:	32 00                	xor    (%eax),%al
     74a:	00 0d 25 01 5c 04    	add    %cl,0x45c0125
     750:	00 00                	add    %al,(%eax)
     752:	02 23                	add    (%ebx),%ah
     754:	40                   	inc    %eax
     755:	18 15 0f 00 00 0d    	sbb    %dl,0xd00000f
     75b:	29 01                	sub    %eax,(%ecx)
     75d:	b5 02                	mov    $0x2,%ch
     75f:	00 00                	add    %al,(%eax)
     761:	02 23                	add    (%ebx),%ah
     763:	44                   	inc    %esp
     764:	18 5f c5             	sbb    %bl,0xffffffc5(%edi)
     767:	00 00                	add    %al,(%eax)
     769:	0d 2a 01 90 03       	or     $0x390012a,%eax
     76e:	00 00                	add    %al,(%eax)
     770:	02 23                	add    (%ebx),%ah
     772:	46                   	inc    %esi
     773:	18 75 c1             	sbb    %dh,0xffffffc1(%ebp)
     776:	00 00                	add    %al,(%eax)
     778:	0d 2b 01 3f 15       	or     $0x153f012b,%eax
     77d:	00 00                	add    %al,(%eax)
     77f:	02 23                	add    (%ebx),%ah
     781:	47                   	inc    %edi
     782:	18 22                	sbb    %ah,(%edx)
     784:	a9 00 00 0d 2f       	test   $0x2f0d0000,%eax
     789:	01 4f 15             	add    %ecx,0x15(%edi)
     78c:	00 00                	add    %al,(%eax)
     78e:	02 23                	add    (%ebx),%ah
     790:	48                   	dec    %eax
     791:	18 d6                	sbb    %dl,%dh
     793:	32 00                	xor    (%eax),%al
     795:	00 0d 38 01 6e 04    	add    %cl,0x46e0138
     79b:	00 00                	add    %al,(%eax)
     79d:	02 23                	add    (%ebx),%ah
     79f:	4c                   	dec    %esp
     7a0:	18 be 49 00 00 0d    	sbb    %bh,0xd000049(%esi)
     7a6:	3b 01                	cmp    (%ecx),%eax
     7a8:	b5 12                	mov    $0x12,%ch
     7aa:	00 00                	add    %al,(%eax)
     7ac:	02 23                	add    (%ebx),%ah
     7ae:	54                   	push   %esp
     7af:	18 9c 38 00 00 0d 3c 	sbb    %bl,0x3c0d0000(%eax,%edi,1)
     7b6:	01 2e                	add    %ebp,(%esi)
     7b8:	15 00 00 02 23       	adc    $0x23020000,%eax
     7bd:	58                   	pop    %eax
     7be:	18 e4                	sbb    %ah,%ah
     7c0:	1b 00                	sbb    (%eax),%eax
     7c2:	00 0d 41 01 c7 02    	add    %cl,0x2c70141
     7c8:	00 00                	add    %al,(%eax)
     7ca:	02 23                	add    (%ebx),%ah
     7cc:	5c                   	pop    %esp
     7cd:	18 ba 1c 00 00 0d    	sbb    %bh,0xd00001c(%edx)
     7d3:	43                   	inc    %ebx
     7d4:	01 55 15             	add    %edx,0x15(%ebp)
     7d7:	00 00                	add    %al,(%eax)
     7d9:	02 23                	add    (%ebx),%ah
     7db:	60                   	pusha  
     7dc:	04 fc                	add    $0xfc,%al
     7de:	07                   	pop    %es
     7df:	00 00                	add    %al,(%eax)
     7e1:	01 1f                	add    %ebx,(%edi)
     7e3:	54                   	push   %esp
     7e4:	00 00                	add    %al,(%eax)
     7e6:	7f 20                	jg     808 <_init-0x8047d6c>
     7e8:	00 00                	add    %al,(%eax)
     7ea:	65                   	gs
     7eb:	15 00 00 01 01       	adc    $0x1010000,%eax
     7f0:	05 8e 11 00 00       	add    $0x118e,%eax
     7f5:	01 06                	add    %eax,(%esi)
     7f7:	6b 15 00 00 00 07 14 	imul   $0x14,0x7000000,%edx
     7fe:	08 00                	or     %al,(%eax)
     800:	00 01                	add    %al,(%ecx)
     802:	e1 04                	loope  808 <_init-0x8047d6c>
     804:	00 00                	add    %al,(%eax)
     806:	01 01                	add    %eax,(%ecx)
     808:	05 8e 11 00 00       	add    $0x118e,%eax
     80d:	01 06                	add    %eax,(%esi)
     80f:	6b 15 00 00 00 08 01 	imul   $0x1,0x8000000,%edx
     816:	e1 04                	loope  81c <_init-0x8047d58>
     818:	00 00                	add    %al,(%eax)
     81a:	01 01                	add    %eax,(%ecx)
     81c:	05 8e 11 00 00       	add    $0x118e,%eax
     821:	01 00                	add    %eax,(%eax)
     823:	00 11                	add    %dl,(%ecx)
     825:	fd                   	std    
     826:	4f                   	dec    %edi
     827:	00 00                	add    %al,(%eax)
     829:	08 3e                	or     %bh,(%esi)
     82b:	49                   	dec    %ecx
     82c:	06                   	push   %es
     82d:	00 00                	add    %al,(%eax)
     82f:	19 02                	sbb    %eax,(%edx)
     831:	48                   	dec    %eax
     832:	00 00                	add    %al,(%eax)
     834:	05 62 01 39 03       	add    $0x3390162,%eax
     839:	00 00                	add    %al,(%eax)
     83b:	11 b9 8c 00 00 09    	adc    %edi,0x900008c(%ecx)
     841:	54                   	push   %esp
     842:	46                   	inc    %esi
     843:	08 00                	or     %al,(%eax)
     845:	00 02                	add    %al,(%edx)
     847:	17                   	pop    %ss
     848:	09 00                	or     %eax,(%eax)
     84a:	00 b9 8c 00 00 08    	add    %bh,0x800008c(%ecx)
     850:	09 4d 03             	or     %ecx,0x3(%ebp)
     853:	20 41 00             	and    %al,0x0(%ecx)
     856:	00 09                	add    %cl,(%ecx)
     858:	4e                   	dec    %esi
     859:	c7 02 00 00 02 23    	movl   $0x23020000,(%edx)
     85f:	00 1a                	add    %bl,(%edx)
     861:	bf 08 00 00 04       	mov    $0x4000008,%edi
     866:	09 50 1b             	or     %edx,0x1b(%eax)
     869:	1f                   	pop    %ds
     86a:	2e 00 00             	add    %al,%cs:(%eax)
     86d:	09 51 2f             	or     %edx,0x2f(%ecx)
     870:	08 00                	or     %al,(%eax)
     872:	00 1b                	add    %bl,(%ebx)
     874:	89 47 00             	mov    %eax,0x0(%edi)
     877:	00 09                	add    %cl,(%ecx)
     879:	52                   	push   %edx
     87a:	17                   	pop    %ss
     87b:	09 00                	or     %eax,(%eax)
     87d:	00 14 99             	add    %dl,(%ecx,%ebx,4)
     880:	08 00                	or     %al,(%eax)
     882:	00 1f                	add    %bl,(%edi)
     884:	54                   	push   %esp
     885:	00 00                	add    %al,(%eax)
     887:	27                   	daa    
     888:	09 00                	or     %eax,(%eax)
     88a:	00 01                	add    %al,(%ecx)
     88c:	01 05 2d 09 00 00    	add    %eax,0x92d
     892:	01 06                	add    %eax,(%esi)
     894:	33 09                	xor    (%ecx),%ecx
     896:	00 00                	add    %al,(%eax)
     898:	00 15 b0 08 00 00    	add    %dl,0x8b0
     89e:	2e                   	cs
     89f:	5f                   	pop    %edi
     8a0:	35 00 01 01 05       	xor    $0x5010100,%eax
     8a5:	2d 09 00 00 01       	sub    $0x1000009,%eax
     8aa:	06                   	push   %es
     8ab:	33 09                	xor    (%ecx),%ecx
     8ad:	00 00                	add    %al,(%eax)
     8af:	00 16                	add    %dl,(%esi)
     8b1:	2e                   	cs
     8b2:	5f                   	pop    %edi
     8b3:	35 00 01 01 05       	xor    $0x5010100,%eax
     8b8:	2d 09 00 00 01       	sub    $0x1000009,%eax
     8bd:	00 00                	add    %al,(%eax)
     8bf:	03 6b 05             	add    0x5(%ebx),%ebp
     8c2:	00 00                	add    %al,(%eax)
     8c4:	09 53 60             	or     %edx,0x60(%ebx)
     8c7:	08 00                	or     %al,(%eax)
     8c9:	00 02                	add    %al,(%edx)
     8cb:	23 04 13             	and    (%ebx,%edx,1),%eax
     8ce:	2e                   	cs
     8cf:	5f                   	pop    %edi
     8d0:	34 00                	xor    $0x0,%al
     8d2:	46                   	inc    %esi
     8d3:	08 00                	or     %al,(%eax)
     8d5:	00 14 f1             	add    %dl,(%ecx,%esi,8)
     8d8:	08 00                	or     %al,(%eax)
     8da:	00 1f                	add    %bl,(%edi)
     8dc:	54                   	push   %esp
     8dd:	00 00                	add    %al,(%eax)
     8df:	3e 09 00             	or     %eax,%ds:(%eax)
     8e2:	00 01                	add    %al,(%ecx)
     8e4:	01 05 44 09 00 00    	add    %eax,0x944
     8ea:	01 06                	add    %eax,(%esi)
     8ec:	4a                   	dec    %edx
     8ed:	09 00                	or     %eax,(%eax)
     8ef:	00 00                	add    %al,(%eax)
     8f1:	15 08 09 00 00       	adc    $0x908,%eax
     8f6:	2e                   	cs
     8f7:	5f                   	pop    %edi
     8f8:	34 00                	xor    $0x0,%al
     8fa:	01 01                	add    %eax,(%ecx)
     8fc:	05 44 09 00 00       	add    $0x944,%eax
     901:	01 06                	add    %eax,(%esi)
     903:	4a                   	dec    %edx
     904:	09 00                	or     %eax,(%eax)
     906:	00 00                	add    %al,(%eax)
     908:	16                   	push   %ss
     909:	2e                   	cs
     90a:	5f                   	pop    %edi
     90b:	34 00                	xor    $0x0,%al
     90d:	01 01                	add    %eax,(%ecx)
     90f:	05 44 09 00 00       	add    $0x944,%eax
     914:	01 00                	add    %eax,(%eax)
     916:	00 0d 27 09 00 00    	add    %cl,0x927
     91c:	cf                   	iret   
     91d:	01 00                	add    %eax,(%eax)
     91f:	00 0e                	add    %cl,(%esi)
     921:	97                   	xchg   %eax,%edi
     922:	02 00                	add    (%eax),%al
     924:	00 03                	add    %al,(%ebx)
     926:	00 0b                	add    %cl,(%ebx)
     928:	04 60                	add    $0x60,%al
     92a:	08 00                	or     %al,(%eax)
     92c:	00 09                	add    %cl,(%ecx)
     92e:	04 60                	add    $0x60,%al
     930:	08 00                	or     %al,(%eax)
     932:	00 0b                	add    %cl,(%ebx)
     934:	04 39                	add    $0x39,%al
     936:	09 00                	or     %eax,(%eax)
     938:	00 0c 60             	add    %cl,(%eax,2)
     93b:	08 00                	or     %al,(%eax)
     93d:	00 0b                	add    %cl,(%ebx)
     93f:	04 46                	add    $0x46,%al
     941:	08 00                	or     %al,(%eax)
     943:	00 09                	add    %cl,(%ecx)
     945:	04 46                	add    $0x46,%al
     947:	08 00                	or     %al,(%eax)
     949:	00 0b                	add    %cl,(%ebx)
     94b:	04 50                	add    $0x50,%al
     94d:	09 00                	or     %eax,(%eax)
     94f:	00 0c 46             	add    %cl,(%esi,%eax,2)
     952:	08 00                	or     %al,(%eax)
     954:	00 11                	add    %dl,(%ecx)
     956:	66                   	data16
     957:	c0 00 00             	rolb   $0x0,(%eax)
     95a:	0a 1e                	or     (%esi),%bl
     95c:	60                   	pusha  
     95d:	09 00                	or     %eax,(%eax)
     95f:	00 02                	add    %al,(%edx)
     961:	d2 09                	rorb   %cl,(%ecx)
     963:	00 00                	add    %al,(%eax)
     965:	66                   	data16
     966:	c0 00 00             	rolb   $0x0,(%eax)
     969:	0c 0a                	or     $0xa,%al
     96b:	1b 03                	sbb    (%ebx),%eax
     96d:	49                   	dec    %ecx
     96e:	53                   	push   %ebx
     96f:	00 00                	add    %al,(%eax)
     971:	0a 1c 5c             	or     (%esp,%ebx,2),%bl
     974:	04 00                	add    $0x0,%al
     976:	00 02                	add    %al,(%edx)
     978:	23 00                	and    (%eax),%eax
     97a:	03 3b                	add    (%ebx),%edi
     97c:	62 00                	bound  %eax,(%eax)
     97e:	00 0a                	add    %cl,(%edx)
     980:	1d 46 08 00 00       	sbb    $0x846,%eax
     985:	02 23                	add    (%ebx),%ah
     987:	04 13                	add    $0x13,%al
     989:	2e                   	cs
     98a:	5f                   	pop    %edi
     98b:	36 00 60 09          	add    %ah,%ss:0x9(%eax)
     98f:	00 00                	add    %al,(%eax)
     991:	14 ac                	adc    $0xac,%al
     993:	09 00                	or     %eax,(%eax)
     995:	00 1f                	add    %bl,(%edi)
     997:	54                   	push   %esp
     998:	00 00                	add    %al,(%eax)
     99a:	d2 09                	rorb   %cl,(%ecx)
     99c:	00 00                	add    %al,(%eax)
     99e:	01 01                	add    %eax,(%ecx)
     9a0:	05 d8 09 00 00       	add    $0x9d8,%eax
     9a5:	01 06                	add    %eax,(%esi)
     9a7:	de 09                	fimul  (%ecx)
     9a9:	00 00                	add    %al,(%eax)
     9ab:	00 15 c3 09 00 00    	add    %dl,0x9c3
     9b1:	2e                   	cs
     9b2:	5f                   	pop    %edi
     9b3:	36 00 01             	add    %al,%ss:(%ecx)
     9b6:	01 05 d8 09 00 00    	add    %eax,0x9d8
     9bc:	01 06                	add    %eax,(%esi)
     9be:	de 09                	fimul  (%ecx)
     9c0:	00 00                	add    %al,(%eax)
     9c2:	00 16                	add    %dl,(%esi)
     9c4:	2e                   	cs
     9c5:	5f                   	pop    %edi
     9c6:	36 00 01             	add    %al,%ss:(%ecx)
     9c9:	01 05 d8 09 00 00    	add    %eax,0x9d8
     9cf:	01 00                	add    %eax,(%eax)
     9d1:	00 0b                	add    %cl,(%ebx)
     9d3:	04 60                	add    $0x60,%al
     9d5:	09 00                	or     %eax,(%eax)
     9d7:	00 09                	add    %cl,(%ecx)
     9d9:	04 60                	add    $0x60,%al
     9db:	09 00                	or     %eax,(%eax)
     9dd:	00 0b                	add    %cl,(%ebx)
     9df:	04 e4                	add    $0xe4,%al
     9e1:	09 00                	or     %eax,(%eax)
     9e3:	00 0c 60             	add    %cl,(%eax,2)
     9e6:	09 00                	or     %eax,(%eax)
     9e8:	00 11                	add    %dl,(%ecx)
     9ea:	9e                   	sahf   
     9eb:	0b 00                	or     (%eax),%eax
     9ed:	00 0a                	add    %cl,(%edx)
     9ef:	23 f4                	and    %esp,%esi
     9f1:	09 00                	or     %eax,(%eax)
     9f3:	00 02                	add    %al,(%edx)
     9f5:	66                   	data16
     9f6:	0a 00                	or     (%eax),%al
     9f8:	00 9e 0b 00 00 10    	add    %bl,0x1000000b(%esi)
     9fe:	0a 20                	or     (%eax),%ah
     a00:	03 49 53             	add    0x53(%ecx),%ecx
     a03:	00 00                	add    %al,(%eax)
     a05:	0a 21                	or     (%ecx),%ah
     a07:	6e                   	outsb  %ds:(%esi),(%dx)
     a08:	04 00                	add    $0x0,%al
     a0a:	00 02                	add    %al,(%edx)
     a0c:	23 00                	and    (%eax),%eax
     a0e:	03 3b                	add    (%ebx),%edi
     a10:	62 00                	bound  %eax,(%eax)
     a12:	00 0a                	add    %cl,(%edx)
     a14:	22 46 08             	and    0x8(%esi),%al
     a17:	00 00                	add    %al,(%eax)
     a19:	02 23                	add    (%ebx),%ah
     a1b:	08 13                	or     %dl,(%ebx)
     a1d:	2e                   	cs
     a1e:	5f                   	pop    %edi
     a1f:	37                   	aaa    
     a20:	00 f4                	add    %dh,%ah
     a22:	09 00                	or     %eax,(%eax)
     a24:	00 14 40             	add    %dl,(%eax,%eax,2)
     a27:	0a 00                	or     (%eax),%al
     a29:	00 1f                	add    %bl,(%edi)
     a2b:	54                   	push   %esp
     a2c:	00 00                	add    %al,(%eax)
     a2e:	66                   	data16
     a2f:	0a 00                	or     (%eax),%al
     a31:	00 01                	add    %al,(%ecx)
     a33:	01 05 6c 0a 00 00    	add    %eax,0xa6c
     a39:	01 06                	add    %eax,(%esi)
     a3b:	72 0a                	jb     a47 <_init-0x8047b2d>
     a3d:	00 00                	add    %al,(%eax)
     a3f:	00 15 57 0a 00 00    	add    %dl,0xa57
     a45:	2e                   	cs
     a46:	5f                   	pop    %edi
     a47:	37                   	aaa    
     a48:	00 01                	add    %al,(%ecx)
     a4a:	01 05 6c 0a 00 00    	add    %eax,0xa6c
     a50:	01 06                	add    %eax,(%esi)
     a52:	72 0a                	jb     a5e <_init-0x8047b16>
     a54:	00 00                	add    %al,(%eax)
     a56:	00 16                	add    %dl,(%esi)
     a58:	2e                   	cs
     a59:	5f                   	pop    %edi
     a5a:	37                   	aaa    
     a5b:	00 01                	add    %al,(%ecx)
     a5d:	01 05 6c 0a 00 00    	add    %eax,0xa6c
     a63:	01 00                	add    %eax,(%eax)
     a65:	00 0b                	add    %cl,(%ebx)
     a67:	04 f4                	add    $0xf4,%al
     a69:	09 00                	or     %eax,(%eax)
     a6b:	00 09                	add    %cl,(%ecx)
     a6d:	04 f4                	add    $0xf4,%al
     a6f:	09 00                	or     %eax,(%eax)
     a71:	00 0b                	add    %cl,(%ebx)
     a73:	04 78                	add    $0x78,%al
     a75:	0a 00                	or     (%eax),%al
     a77:	00 0c f4             	add    %cl,(%esp,%esi,8)
     a7a:	09 00                	or     %eax,(%eax)
     a7c:	00 11                	add    %dl,(%ecx)
     a7e:	69 c4 00 00 0b 48    	imul   $0x480b0000,%esp,%eax
     a84:	88 0a                	mov    %cl,(%edx)
     a86:	00 00                	add    %al,(%eax)
     a88:	09 04 8e             	or     %eax,(%esi,%ecx,4)
     a8b:	0a 00                	or     (%eax),%al
     a8d:	00 1c c0             	add    %bl,(%eax,%eax,8)
     a90:	0a 00                	or     (%eax),%al
     a92:	00 c7                	add    %al,%bh
     a94:	02 00                	add    (%eax),%al
     a96:	00 06                	add    %al,(%esi)
     a98:	c0 0a 00             	rorb   $0x0,(%edx)
     a9b:	00 06                	add    %al,(%esi)
     a9d:	ec                   	in     (%dx),%al
     a9e:	0b 00                	or     (%eax),%eax
     aa0:	00 06                	add    %al,(%esi)
     aa2:	b6 0c                	mov    $0xc,%dh
     aa4:	00 00                	add    %al,(%eax)
     aa6:	06                   	push   %es
     aa7:	bc 0c 00 00 06       	mov    $0x600000c,%esp
     aac:	c7 0c 00 00 06 d3 0c 	movl   $0xcd30600,(%eax,%eax,1)
     ab3:	00 00                	add    %al,(%eax)
     ab5:	06                   	push   %es
     ab6:	c7 02 00 00 06 c7    	movl   $0xc7060000,(%edx)
     abc:	02 00                	add    (%eax),%al
     abe:	00 00                	add    %al,(%eax)
     ac0:	09 04 c6             	or     %eax,(%esi,%eax,8)
     ac3:	0a 00                	or     (%eax),%al
     ac5:	00 02                	add    %al,(%edx)
     ac7:	ec                   	in     (%dx),%al
     ac8:	0b 00                	or     (%eax),%eax
     aca:	00 d9                	add    %bl,%cl
     acc:	44                   	inc    %esp
     acd:	00 00                	add    %al,(%eax)
     acf:	3c 0b                	cmp    $0xb,%al
     ad1:	74 03                	je     ad6 <_init-0x8047a9e>
     ad3:	30 aa 00 00 0b 75    	xor    %ch,0x750b0000(%edx)
     ad9:	e5 0e                	in     $0xe,%eax
     adb:	00 00                	add    %al,(%eax)
     add:	02 23                	add    (%ebx),%ah
     adf:	00 03                	add    %al,(%ebx)
     ae1:	f1                   	icebp  
     ae2:	b2 00                	mov    $0x0,%dl
     ae4:	00 0b                	add    %cl,(%ebx)
     ae6:	76 de                	jbe    ac6 <_init-0x8047aae>
     ae8:	02 00                	add    (%eax),%al
     aea:	00 02                	add    %al,(%edx)
     aec:	23 04 03             	and    (%ebx,%eax,1),%eax
     aef:	f9                   	stc    
     af0:	04 00                	add    $0x0,%al
     af2:	00 0b                	add    %cl,(%ebx)
     af4:	78 c7                	js     abd <_init-0x8047ab7>
     af6:	02 00                	add    (%eax),%al
     af8:	00 02                	add    %al,(%edx)
     afa:	23 08                	and    (%eax),%ecx
     afc:	03 e2                	add    %edx,%esp
     afe:	5c                   	pop    %esp
     aff:	00 00                	add    %al,(%eax)
     b01:	0b 7a c9             	or     0xffffffc9(%edx),%edi
     b04:	01 00                	add    %eax,(%eax)
     b06:	00 02                	add    %al,(%edx)
     b08:	23 0c 03             	and    (%ebx,%eax,1),%ecx
     b0b:	d1 0e                	rorl   (%esi)
     b0d:	00 00                	add    %al,(%eax)
     b0f:	0b 7b c9             	or     0xffffffc9(%ebx),%edi
     b12:	01 00                	add    %eax,(%eax)
     b14:	00 02                	add    %al,(%edx)
     b16:	23 10                	and    (%eax),%edx
     b18:	03 50 33             	add    0x33(%eax),%edx
     b1b:	00 00                	add    %al,(%eax)
     b1d:	0b 7d 7d             	or     0x7d(%ebp),%edi
     b20:	0a 00                	or     (%eax),%al
     b22:	00 02                	add    %al,(%edx)
     b24:	23 14 03             	and    (%ebx,%eax,1),%edx
     b27:	aa                   	stos   %al,%es:(%edi)
     b28:	8a 00                	mov    (%eax),%al
     b2a:	00 0b                	add    %cl,(%ebx)
     b2c:	7e d9                	jle    b07 <_init-0x8047a6d>
     b2e:	0c 00                	or     $0x0,%al
     b30:	00 02                	add    %al,(%edx)
     b32:	23 18                	and    (%eax),%ebx
     b34:	03 b2 4a 00 00 0b    	add    0xb00004a(%edx),%esi
     b3a:	7f fe                	jg     b3a <_init-0x8047a3a>
     b3c:	0c 00                	or     $0x0,%al
     b3e:	00 02                	add    %al,(%edx)
     b40:	23 1c 03             	and    (%ebx,%eax,1),%ebx
     b43:	ff 8e 00 00 0b 80    	decl   0x800b0000(%esi)
     b49:	1e                   	push   %ds
     b4a:	0d 00 00 02 23       	or     $0x23020000,%eax
     b4f:	20 03                	and    %al,(%ebx)
     b51:	dd 17                	fstl   (%edi)
     b53:	00 00                	add    %al,(%eax)
     b55:	0b 84 c7 02 00 00 02 	or     0x2000002(%edi,%eax,8),%eax
     b5c:	23 24 03             	and    (%ebx,%eax,1),%esp
     b5f:	f4                   	hlt    
     b60:	98                   	cwtl   
     b61:	00 00                	add    %al,(%eax)
     b63:	0b 85 c7 02 00 00    	or     0x2c7(%ebp),%eax
     b69:	02 23                	add    (%ebx),%ah
     b6b:	28 03                	sub    %al,(%ebx)
     b6d:	23 15 00 00 0b 86    	and    0x860b0000,%edx
     b73:	c7 02 00 00 02 23    	movl   $0x23020000,(%edx)
     b79:	2c 03                	sub    $0x3,%al
     b7b:	30 72 00             	xor    %dh,0x0(%edx)
     b7e:	00 0b                	add    %cl,(%ebx)
     b80:	87 c7                	xchg   %eax,%edi
     b82:	02 00                	add    (%eax),%al
     b84:	00 02                	add    %al,(%edx)
     b86:	23 30                	and    (%eax),%esi
     b88:	03 9b 72 00 00 0b    	add    0xb000072(%ebx),%ebx
     b8e:	8a c7                	mov    %bh,%al
     b90:	02 00                	add    (%eax),%al
     b92:	00 02                	add    %al,(%edx)
     b94:	23 34 03             	and    (%ebx,%eax,1),%esi
     b97:	c5 2c 00             	lds    (%eax,%eax,1),%ebp
     b9a:	00 0b                	add    %cl,(%ebx)
     b9c:	8c 21                	movl   %fs,(%ecx)
     b9e:	03 00                	add    (%eax),%eax
     ba0:	00 02                	add    %al,(%edx)
     ba2:	23 38                	and    (%eax),%edi
     ba4:	04 c4                	add    $0xc4,%al
     ba6:	0b 00                	or     (%eax),%eax
     ba8:	00 01                	add    %al,(%ecx)
     baa:	1f                   	pop    %ds
     bab:	54                   	push   %esp
     bac:	00 00                	add    %al,(%eax)
     bae:	a6                   	cmpsb  %es:(%edi),%ds:(%esi)
     baf:	15 00 00 eb 0e       	adc    $0xeeb0000,%eax
     bb4:	00 00                	add    %al,(%eax)
     bb6:	01 01                	add    %eax,(%ecx)
     bb8:	05 c0 0a 00 00       	add    $0xac0,%eax
     bbd:	01 06                	add    %eax,(%esi)
     bbf:	f1                   	icebp  
     bc0:	0e                   	push   %cs
     bc1:	00 00                	add    %al,(%eax)
     bc3:	00 07                	add    %al,(%edi)
     bc5:	dc 0b                	fmull  (%ebx)
     bc7:	00 00                	add    %al,(%eax)
     bc9:	01 d9                	add    %ebx,%ecx
     bcb:	44                   	inc    %esp
     bcc:	00 00                	add    %al,(%eax)
     bce:	01 01                	add    %eax,(%ecx)
     bd0:	05 c0 0a 00 00       	add    $0xac0,%eax
     bd5:	01 06                	add    %eax,(%esi)
     bd7:	f1                   	icebp  
     bd8:	0e                   	push   %cs
     bd9:	00 00                	add    %al,(%eax)
     bdb:	00 08                	add    %cl,(%eax)
     bdd:	01 d9                	add    %ebx,%ecx
     bdf:	44                   	inc    %esp
     be0:	00 00                	add    %al,(%eax)
     be2:	01 01                	add    %eax,(%ecx)
     be4:	05 c0 0a 00 00       	add    $0xac0,%eax
     be9:	01 00                	add    %eax,(%eax)
     beb:	00 09                	add    %cl,(%ecx)
     bed:	04 f2                	add    $0xf2,%al
     bef:	0b 00                	or     (%eax),%eax
     bf1:	00 02                	add    %al,(%edx)
     bf3:	b6 0c                	mov    $0xc,%dh
     bf5:	00 00                	add    %al,(%eax)
     bf7:	aa                   	stos   %al,%es:(%edi)
     bf8:	88 00                	mov    %al,(%eax)
     bfa:	00 24 0b             	add    %ah,(%ebx,%ecx,1)
     bfd:	92                   	xchg   %eax,%edx
     bfe:	03 ce                	add    %esi,%ecx
     c00:	ac                   	lods   %ds:(%esi),%al
     c01:	00 00                	add    %al,(%eax)
     c03:	0b 93 cd 0c 00 00    	or     0xccd(%ebx),%edx
     c09:	02 23                	add    (%ebx),%ah
     c0b:	00 03                	add    %al,(%ebx)
     c0d:	c5 1a                	lds    (%edx),%ebx
     c0f:	00 00                	add    %al,(%eax)
     c11:	0b 94 cd 0c 00 00 02 	or     0x200000c(%ebp,%ecx,8),%edx
     c18:	23 04 03             	and    (%ebx,%eax,1),%eax
     c1b:	76 1a                	jbe    c37 <_init-0x804793d>
     c1d:	00 00                	add    %al,(%eax)
     c1f:	0b 98 c7 02 00 00    	or     0x2c7(%eax),%ebx
     c25:	02 23                	add    (%ebx),%ah
     c27:	08 03                	or     %al,(%ebx)
     c29:	21 11                	and    %edx,(%ecx)
     c2b:	00 00                	add    %al,(%eax)
     c2d:	0b 9c c7 02 00 00 02 	or     0x2000002(%edi,%eax,8),%ebx
     c34:	23 0c 03             	and    (%ebx,%eax,1),%ecx
     c37:	1d bc 00 00 0b       	sbb    $0xb0000bc,%eax
     c3c:	a0 c7 02 00 00       	mov    0x2c7,%al
     c41:	02 23                	add    (%ebx),%ah
     c43:	10 03                	adc    %al,(%ebx)
     c45:	e9 07 00 00 0b       	jmp    b000c51 <_end+0x2fb714d>
     c4a:	a2 44 09 00 00       	mov    %al,0x944
     c4f:	02 23                	add    (%ebx),%ah
     c51:	14 03                	adc    $0x3,%al
     c53:	3b 62 00             	cmp    0x0(%edx),%esp
     c56:	00 0b                	add    %cl,(%ebx)
     c58:	a3 46 08 00 00       	mov    %eax,0x846
     c5d:	02 23                	add    (%ebx),%ah
     c5f:	18 03                	sbb    %al,(%ebx)
     c61:	51                   	push   %ecx
     c62:	8f 00                	popl   (%eax)
     c64:	00 0b                	add    %cl,(%ebx)
     c66:	a7                   	cmpsl  %es:(%edi),%ds:(%esi)
     c67:	c8 0e 00 00          	enter  $0xe,$0x0
     c6b:	02 23                	add    (%ebx),%ah
     c6d:	20 04 8e             	and    %al,(%esi,%ecx,4)
     c70:	0c 00                	or     $0x0,%al
     c72:	00 01                	add    %al,(%ecx)
     c74:	1f                   	pop    %ds
     c75:	54                   	push   %esp
     c76:	00 00                	add    %al,(%eax)
     c78:	a5                   	movsl  %ds:(%esi),%es:(%edi)
     c79:	66                   	data16
     c7a:	00 00                	add    %al,(%eax)
     c7c:	fc                   	cld    
     c7d:	0e                   	push   %cs
     c7e:	00 00                	add    %al,(%eax)
     c80:	01 01                	add    %eax,(%ecx)
     c82:	05 ec 0b 00 00       	add    $0xbec,%eax
     c87:	01 06                	add    %eax,(%esi)
     c89:	02 0f                	add    (%edi),%cl
     c8b:	00 00                	add    %al,(%eax)
     c8d:	00 07                	add    %al,(%edi)
     c8f:	a6                   	cmpsb  %es:(%edi),%ds:(%esi)
     c90:	0c 00                	or     $0x0,%al
     c92:	00 01                	add    %al,(%ecx)
     c94:	aa                   	stos   %al,%es:(%edi)
     c95:	88 00                	mov    %al,(%eax)
     c97:	00 01                	add    %al,(%ecx)
     c99:	01 05 ec 0b 00 00    	add    %eax,0xbec
     c9f:	01 06                	add    %eax,(%esi)
     ca1:	02 0f                	add    (%edi),%cl
     ca3:	00 00                	add    %al,(%eax)
     ca5:	00 08                	add    %cl,(%eax)
     ca7:	01 aa 88 00 00 01    	add    %ebp,0x1000088(%edx)
     cad:	01 05 ec 0b 00 00    	add    %eax,0xbec
     cb3:	01 00                	add    %eax,(%eax)
     cb5:	00 09                	add    %cl,(%ecx)
     cb7:	04 bc                	add    $0xbc,%al
     cb9:	0c 00                	or     $0x0,%al
     cbb:	00 09                	add    %cl,(%ecx)
     cbd:	04 c2                	add    $0xc2,%al
     cbf:	0c 00                	or     $0x0,%al
     cc1:	00 0c 56             	add    %cl,(%esi,%edx,2)
     cc4:	03 00                	add    (%eax),%eax
     cc6:	00 09                	add    %cl,(%ecx)
     cc8:	04 cd                	add    $0xcd,%al
     cca:	0c 00                	or     $0x0,%al
     ccc:	00 09                	add    %cl,(%ecx)
     cce:	04 56                	add    $0x56,%al
     cd0:	03 00                	add    (%eax),%eax
     cd2:	00 09                	add    %cl,(%ecx)
     cd4:	04 2e                	add    $0x2e,%al
     cd6:	03 00                	add    (%eax),%eax
     cd8:	00 11                	add    %dl,(%ecx)
     cda:	2e                   	cs
     cdb:	35 00 00 0b 4b       	xor    $0x4b0b0000,%eax
     ce0:	e4 0c                	in     $0xc,%al
     ce2:	00 00                	add    %al,(%eax)
     ce4:	09 04 ea             	or     %eax,(%edx,%ebp,8)
     ce7:	0c 00                	or     $0x0,%al
     ce9:	00 1c fe             	add    %bl,(%esi,%edi,8)
     cec:	0c 00                	or     $0x0,%al
     cee:	00 2f                	add    %ch,(%edi)
     cf0:	08 00                	or     %al,(%eax)
     cf2:	00 06                	add    %al,(%esi)
     cf4:	c0 0a 00             	rorb   $0x0,(%edx)
     cf7:	00 06                	add    %al,(%esi)
     cf9:	56                   	push   %esi
     cfa:	03 00                	add    (%eax),%eax
     cfc:	00 00                	add    %al,(%eax)
     cfe:	11 58 6f             	adc    %ebx,0x6f(%eax)
     d01:	00 00                	add    %al,(%eax)
     d03:	0b 4e 09             	or     0x9(%esi),%ecx
     d06:	0d 00 00 09 04       	or     $0x4090000,%eax
     d0b:	0f 0d 00             	prefetch (%eax)
     d0e:	00 1c 1e             	add    %bl,(%esi,%ebx,1)
     d11:	0d 00 00 c7 02       	or     $0x2c70000,%eax
     d16:	00 00                	add    %al,(%eax)
     d18:	06                   	push   %es
     d19:	c0 0a 00             	rorb   $0x0,(%edx)
     d1c:	00 00                	add    %al,(%eax)
     d1e:	11 13                	adc    %edx,(%ebx)
     d20:	86 00                	xchg   %al,(%eax)
     d22:	00 0b                	add    %cl,(%ebx)
     d24:	4f                   	dec    %edi
     d25:	29 0d 00 00 09 04    	sub    %ecx,0x4090000
     d2b:	2f                   	das    
     d2c:	0d 00 00 1d 3a       	or     $0x3a1d0000,%eax
     d31:	0d 00 00 06 c0       	or     $0xc0060000,%eax
     d36:	0a 00                	or     (%eax),%al
     d38:	00 00                	add    %al,(%eax)
     d3a:	11 87 8f 00 00 0b    	adc    %eax,0xb00008f(%edi)
     d40:	58                   	pop    %eax
     d41:	45                   	inc    %ebp
     d42:	0d 00 00 09 04       	or     $0x4090000,%eax
     d47:	4b                   	dec    %ebx
     d48:	0d 00 00 1c 7d       	or     $0x7d1c0000,%eax
     d4d:	0d 00 00 c7 02       	or     $0x2c70000,%eax
     d52:	00 00                	add    %al,(%eax)
     d54:	06                   	push   %es
     d55:	c0 0a 00             	rorb   $0x0,(%edx)
     d58:	00 06                	add    %al,(%esi)
     d5a:	ec                   	in     (%dx),%al
     d5b:	0b 00                	or     (%eax),%eax
     d5d:	00 06                	add    %al,(%esi)
     d5f:	21 03                	and    %eax,(%ebx)
     d61:	00 00                	add    %al,(%eax)
     d63:	06                   	push   %es
     d64:	bc 0c 00 00 06       	mov    $0x600000c,%esp
     d69:	b6 0c                	mov    $0xc,%dh
     d6b:	00 00                	add    %al,(%eax)
     d6d:	06                   	push   %es
     d6e:	bc 0c 00 00 06       	mov    $0x600000c,%esp
     d73:	c7 0c 00 00 06 d3 0c 	movl   $0xcd30600,(%eax,%eax,1)
     d7a:	00 00                	add    %al,(%eax)
     d7c:	00 11                	add    %dl,(%ecx)
     d7e:	cc                   	int3   
     d7f:	c3                   	ret    
     d80:	00 00                	add    %al,(%eax)
     d82:	0b 5d 88             	or     0xffffff88(%ebp),%ebx
     d85:	0d 00 00 09 04       	or     $0x4090000,%eax
     d8a:	8e 0d 00 00 1c b1    	movl   0xb11c0000,%cs
     d90:	0d 00 00 c7 02       	or     $0x2c70000,%eax
     d95:	00 00                	add    %al,(%eax)
     d97:	06                   	push   %es
     d98:	21 03                	and    %eax,(%ebx)
     d9a:	00 00                	add    %al,(%eax)
     d9c:	06                   	push   %es
     d9d:	bc 0c 00 00 06       	mov    $0x600000c,%esp
     da2:	bc 0c 00 00 06       	mov    $0x600000c,%esp
     da7:	cd 0c                	int    $0xc
     da9:	00 00                	add    %al,(%eax)
     dab:	06                   	push   %es
     dac:	cd 0c                	int    $0xc
     dae:	00 00                	add    %al,(%eax)
     db0:	00 11                	add    %dl,(%ecx)
     db2:	f6 05 00 00 0b 61 bc 	testb  $0xbc,0x610b0000
     db9:	0d 00 00 09 04       	or     $0x4090000,%eax
     dbe:	c2 0d 00             	ret    $0xd
     dc1:	00 1c db             	add    %bl,(%ebx,%ebx,8)
     dc4:	0d 00 00 c7 02       	or     $0x2c70000,%eax
     dc9:	00 00                	add    %al,(%eax)
     dcb:	06                   	push   %es
     dcc:	de 02                	fiadd  (%edx)
     dce:	00 00                	add    %al,(%eax)
     dd0:	06                   	push   %es
     dd1:	db 0d 00 00 06 d3    	fisttpl 0xd3060000
     dd7:	0c 00                	or     $0x0,%al
     dd9:	00 00                	add    %al,(%eax)
     ddb:	09 04 e1             	or     %eax,(%ecx,8)
     dde:	0d 00 00 09 04       	or     $0x4090000,%eax
     de3:	de 02                	fiadd  (%edx)
     de5:	00 00                	add    %al,(%eax)
     de7:	11 22                	adc    %esp,(%edx)
     de9:	2f                   	das    
     dea:	00 00                	add    %al,(%eax)
     dec:	0b 64 f2 0d          	or     0xd(%edx,%esi,8),%esp
     df0:	00 00                	add    %al,(%eax)
     df2:	09 04 f8             	or     %eax,(%eax,%edi,8)
     df5:	0d 00 00 1c 0c       	or     $0xc1c0000,%eax
     dfa:	0e                   	push   %cs
     dfb:	00 00                	add    %al,(%eax)
     dfd:	c7 02 00 00 06 0c    	movl   $0xc060000,(%edx)
     e03:	0e                   	push   %cs
     e04:	00 00                	add    %al,(%eax)
     e06:	06                   	push   %es
     e07:	de 02                	fiadd  (%edx)
     e09:	00 00                	add    %al,(%eax)
     e0b:	00 09                	add    %cl,(%ecx)
     e0d:	04 21                	add    $0x21,%al
     e0f:	03 00                	add    (%eax),%eax
     e11:	00 11                	add    %dl,(%ecx)
     e13:	f5                   	cmc    
     e14:	63 00                	arpl   %ax,(%eax)
     e16:	00 0b                	add    %cl,(%ebx)
     e18:	65                   	gs
     e19:	1d 0e 00 00 09       	sbb    $0x900000e,%eax
     e1e:	04 23                	add    $0x23,%al
     e20:	0e                   	push   %cs
     e21:	00 00                	add    %al,(%eax)
     e23:	1d 2e 0e 00 00       	sbb    $0xe2e,%eax
     e28:	06                   	push   %es
     e29:	21 03                	and    %eax,(%ebx)
     e2b:	00 00                	add    %al,(%eax)
     e2d:	00 02                	add    %al,(%edx)
     e2f:	c8 0e 00 00          	enter  $0xe,$0x0
     e33:	56                   	push   %esi
     e34:	66                   	data16
     e35:	00 00                	add    %al,(%eax)
     e37:	14 0b                	adc    $0xb,%al
     e39:	68 03 34 1c 00       	push   $0x1c3403
     e3e:	00 0b                	add    %cl,(%ebx)
     e40:	6a 3a                	push   $0x3a
     e42:	0d 00 00 02 23       	or     $0x23020000,%eax
     e47:	00 03                	add    %al,(%ebx)
     e49:	fb                   	sti    
     e4a:	b2 00                	mov    $0x0,%dl
     e4c:	00 0b                	add    %cl,(%ebx)
     e4e:	6b 7d 0d 00          	imul   $0x0,0xd(%ebp),%edi
     e52:	00 02                	add    %al,(%edx)
     e54:	23 04 03             	and    (%ebx,%eax,1),%eax
     e57:	a0 39 00 00 0b       	mov    0xb000039,%al
     e5c:	6c                   	insb   (%dx),%es:(%edi)
     e5d:	12 0e                	adc    (%esi),%cl
     e5f:	00 00                	add    %al,(%eax)
     e61:	02 23                	add    (%ebx),%ah
     e63:	08 03                	or     %al,(%ebx)
     e65:	c5 2c 00             	lds    (%eax,%eax,1),%ebp
     e68:	00 0b                	add    %cl,(%ebx)
     e6a:	6d                   	insl   (%dx),%es:(%edi)
     e6b:	21 03                	and    %eax,(%ebx)
     e6d:	00 00                	add    %al,(%eax)
     e6f:	02 23                	add    (%ebx),%ah
     e71:	0c 03                	or     $0x3,%al
     e73:	e6 c3                	out    %al,$0xc3
     e75:	00 00                	add    %al,(%eax)
     e77:	0b 6e c8             	or     0xffffffc8(%esi),%ebp
     e7a:	0e                   	push   %cs
     e7b:	00 00                	add    %al,(%eax)
     e7d:	02 23                	add    (%ebx),%ah
     e7f:	10 04 a0             	adc    %al,(%eax,4)
     e82:	0e                   	push   %cs
     e83:	00 00                	add    %al,(%eax)
     e85:	01 1f                	add    %ebx,(%edi)
     e87:	54                   	push   %esp
     e88:	00 00                	add    %al,(%eax)
     e8a:	a7                   	cmpsl  %es:(%edi),%ds:(%esi)
     e8b:	c5 00                	lds    (%eax),%eax
     e8d:	00 ce                	add    %cl,%dh
     e8f:	0e                   	push   %cs
     e90:	00 00                	add    %al,(%eax)
     e92:	01 01                	add    %eax,(%ecx)
     e94:	05 c8 0e 00 00       	add    $0xec8,%eax
     e99:	01 06                	add    %eax,(%esi)
     e9b:	d4 0e                	aam    $0xe
     e9d:	00 00                	add    %al,(%eax)
     e9f:	00 07                	add    %al,(%edi)
     ea1:	b8 0e 00 00 01       	mov    $0x100000e,%eax
     ea6:	56                   	push   %esi
     ea7:	66                   	data16
     ea8:	00 00                	add    %al,(%eax)
     eaa:	01 01                	add    %eax,(%ecx)
     eac:	05 c8 0e 00 00       	add    $0xec8,%eax
     eb1:	01 06                	add    %eax,(%esi)
     eb3:	d4 0e                	aam    $0xe
     eb5:	00 00                	add    %al,(%eax)
     eb7:	00 08                	add    %cl,(%eax)
     eb9:	01 56 66             	add    %edx,0x66(%esi)
     ebc:	00 00                	add    %al,(%eax)
     ebe:	01 01                	add    %eax,(%ecx)
     ec0:	05 c8 0e 00 00       	add    $0xec8,%eax
     ec5:	01 00                	add    %eax,(%eax)
     ec7:	00 09                	add    %cl,(%ecx)
     ec9:	04 2e                	add    $0x2e,%al
     ecb:	0e                   	push   %cs
     ecc:	00 00                	add    %al,(%eax)
     ece:	0b 04 2e             	or     (%esi,%ebp,1),%eax
     ed1:	0e                   	push   %cs
     ed2:	00 00                	add    %al,(%eax)
     ed4:	0b 04 da             	or     (%edx,%ebx,8),%eax
     ed7:	0e                   	push   %cs
     ed8:	00 00                	add    %al,(%eax)
     eda:	0c 2e                	or     $0x2e,%al
     edc:	0e                   	push   %cs
     edd:	00 00                	add    %al,(%eax)
     edf:	0f                   	mov    %tr3,(bad)
     ee0:	24 9b                	and    $0x9b,%al
     ee2:	00 00                	add    %al,(%eax)
     ee4:	01 09                	add    %ecx,(%ecx)
     ee6:	04 df                	add    $0xdf,%al
     ee8:	0e                   	push   %cs
     ee9:	00 00                	add    %al,(%eax)
     eeb:	0b 04 c6             	or     (%esi,%eax,8),%eax
     eee:	0a 00                	or     (%eax),%al
     ef0:	00 0b                	add    %cl,(%ebx)
     ef2:	04 f7                	add    $0xf7,%al
     ef4:	0e                   	push   %cs
     ef5:	00 00                	add    %al,(%eax)
     ef7:	0c c6                	or     $0xc6,%al
     ef9:	0a 00                	or     (%eax),%al
     efb:	00 0b                	add    %cl,(%ebx)
     efd:	04 f2                	add    $0xf2,%al
     eff:	0b 00                	or     (%eax),%eax
     f01:	00 0b                	add    %cl,(%ebx)
     f03:	04 08                	add    $0x8,%al
     f05:	0f 00 00             	sldtl  (%eax)
     f08:	0c f2                	or     $0xf2,%al
     f0a:	0b 00                	or     (%eax),%eax
     f0c:	00 02                	add    %al,(%edx)
     f0e:	8b 0f                	mov    (%edi),%ecx
     f10:	00 00                	add    %al,(%eax)
     f12:	76 63                	jbe    f77 <_init-0x80475fd>
     f14:	00 00                	add    %al,(%eax)
     f16:	08 0b                	or     %cl,(%ebx)
     f18:	ad                   	lods   %ds:(%esi),%eax
     f19:	03 b3 33 00 00 0b    	add    0xb000033(%ebx),%esi
     f1f:	ae                   	scas   %es:(%edi),%al
     f20:	2e 03 00             	add    %cs:(%eax),%eax
     f23:	00 02                	add    %al,(%edx)
     f25:	23 00                	and    (%eax),%eax
     f27:	03 89 37 00 00 0b    	add    0xb000037(%ecx),%ecx
     f2d:	af                   	scas   %es:(%edi),%eax
     f2e:	c0 0a 00             	rorb   $0x0,(%edx)
     f31:	00 02                	add    %al,(%edx)
     f33:	23 04 03             	and    (%ebx,%eax,1),%eax
     f36:	c5 2c 00             	lds    (%eax,%eax,1),%ebp
     f39:	00 0b                	add    %cl,(%ebx)
     f3b:	b0 8b                	mov    $0x8b,%al
     f3d:	0f 00 00             	sldtl  (%eax)
     f40:	02 23                	add    (%ebx),%ah
     f42:	08 04 63             	or     %al,(%ebx,2)
     f45:	0f 00 00             	sldtl  (%eax)
     f48:	01 1f                	add    %ebx,(%edi)
     f4a:	54                   	push   %esp
     f4b:	00 00                	add    %al,(%eax)
     f4d:	d1                   	(bad)  
     f4e:	36 00 00             	add    %al,%ss:(%eax)
     f51:	9a 0f 00 00 01 01 05 	lcall  $0x501,$0x100000f
     f58:	a0 0f 00 00 01       	mov    0x100000f,%al
     f5d:	06                   	push   %es
     f5e:	a6                   	cmpsb  %es:(%edi),%ds:(%esi)
     f5f:	0f 00 00             	sldtl  (%eax)
     f62:	00 07                	add    %al,(%edi)
     f64:	7b 0f                	jnp    f75 <_init-0x80475ff>
     f66:	00 00                	add    %al,(%eax)
     f68:	01 76 63             	add    %esi,0x63(%esi)
     f6b:	00 00                	add    %al,(%eax)
     f6d:	01 01                	add    %eax,(%ecx)
     f6f:	05 a0 0f 00 00       	add    $0xfa0,%eax
     f74:	01 06                	add    %eax,(%esi)
     f76:	a6                   	cmpsb  %es:(%edi),%ds:(%esi)
     f77:	0f 00 00             	sldtl  (%eax)
     f7a:	00 08                	add    %cl,(%eax)
     f7c:	01 76 63             	add    %esi,0x63(%esi)
     f7f:	00 00                	add    %al,(%eax)
     f81:	01 01                	add    %eax,(%ecx)
     f83:	05 a0 0f 00 00       	add    $0xfa0,%eax
     f88:	01 00                	add    %eax,(%eax)
     f8a:	00 0d 9a 0f 00 00    	add    %cl,0xf9a
     f90:	f2 0b 00             	repnz or (%eax),%eax
     f93:	00 1e                	add    %bl,(%esi)
     f95:	97                   	xchg   %eax,%edi
     f96:	02 00                	add    (%eax),%al
     f98:	00 00                	add    %al,(%eax)
     f9a:	0b 04 0d 0f 00 00 09 	or     0x900000f(,%ecx,1),%eax
     fa1:	04 0d                	add    $0xd,%al
     fa3:	0f 00 00             	sldtl  (%eax)
     fa6:	0b 04 ac             	or     (%esp,%ebp,4),%eax
     fa9:	0f 00 00             	sldtl  (%eax)
     fac:	0c 0d                	or     $0xd,%al
     fae:	0f 00 00             	sldtl  (%eax)
     fb1:	11 aa 0b 00 00 0b    	adc    %ebp,0xb00000b(%edx)
     fb7:	b1 a0                	mov    $0xa0,%cl
     fb9:	0f 00 00             	sldtl  (%eax)
     fbc:	11 80 62 00 00 0a    	adc    %eax,0xa000062(%eax)
     fc2:	35 c7 0f 00 00       	xor    $0xfc7,%eax
     fc7:	1f                   	pop    %ds
     fc8:	98                   	cwtl   
     fc9:	10 00                	adc    %al,(%eax)
     fcb:	00 80 62 00 00 2c    	add    %al,0x2c000062(%eax)
     fd1:	0a 2e                	or     (%esi),%ch
     fd3:	1b 9d 3e 00 00 0a    	sbb    0xa00003e(%ebp),%ebx
     fd9:	2f                   	das    
     fda:	0d 0f 00 00 20       	or     $0x2000000f,%eax
     fdf:	43                   	inc    %ebx
     fe0:	10 00                	adc    %al,(%eax)
     fe2:	00 2c 0a             	add    %ch,(%edx,%ecx,1)
     fe5:	31 03                	xor    %eax,(%ebx)
     fe7:	9d                   	popf   
     fe8:	3e 00 00             	add    %al,%ds:(%eax)
     feb:	0a 32                	or     (%edx),%dh
     fed:	0d 0f 00 00 02       	or     $0x200000f,%eax
     ff2:	23 00                	and    (%eax),%eax
     ff4:	03 c5                	add    %ebp,%eax
     ff6:	2c 00                	sub    $0x0,%al
     ff8:	00 0a                	add    %cl,(%edx)
     ffa:	33 f2                	xor    %edx,%esi
     ffc:	0b 00                	or     (%eax),%eax
     ffe:	00 02                	add    %al,(%edx)
    1000:	23 08                	and    (%eax),%ecx
    1002:	14 1d                	adc    $0x1d,%al
    1004:	10 00                	adc    %al,(%eax)
    1006:	00 1f                	add    %bl,(%edi)
    1008:	54                   	push   %esp
    1009:	00 00                	add    %al,(%eax)
    100b:	98                   	cwtl   
    100c:	10 00                	adc    %al,(%eax)
    100e:	00 01                	add    %al,(%ecx)
    1010:	01 05 9e 10 00 00    	add    %eax,0x109e
    1016:	01 06                	add    %eax,(%esi)
    1018:	a4                   	movsb  %ds:(%esi),%es:(%edi)
    1019:	10 00                	adc    %al,(%eax)
    101b:	00 00                	add    %al,(%eax)
    101d:	21 34 10             	and    %esi,(%eax,%edx,1)
    1020:	00 00                	add    %al,(%eax)
    1022:	58                   	pop    %eax
    1023:	62 00                	bound  %eax,(%eax)
    1025:	00 01                	add    %al,(%ecx)
    1027:	01 05 9e 10 00 00    	add    %eax,0x109e
    102d:	01 06                	add    %eax,(%esi)
    102f:	a4                   	movsb  %ds:(%esi),%es:(%edi)
    1030:	10 00                	adc    %al,(%eax)
    1032:	00 00                	add    %al,(%eax)
    1034:	22 58 62             	and    0x62(%eax),%bl
    1037:	00 00                	add    %al,(%eax)
    1039:	01 01                	add    %eax,(%ecx)
    103b:	05 9e 10 00 00       	add    $0x109e,%eax
    1040:	01 00                	add    %eax,(%eax)
    1042:	00 1b                	add    %bl,(%ebx)
    1044:	18 7d 00             	sbb    %bh,0x0(%ebp)
    1047:	00 0a                	add    %cl,(%edx)
    1049:	34 de                	xor    $0xde,%al
    104b:	0f 00 00             	sldtl  (%eax)
    104e:	23 53 62             	and    0x62(%ebx),%edx
    1051:	00 00                	add    %al,(%eax)
    1053:	c7 0f 00 00 14 72    	movl   $0x72140000,(%edi)
    1059:	10 00                	adc    %al,(%eax)
    105b:	00 1f                	add    %bl,(%edi)
    105d:	54                   	push   %esp
    105e:	00 00                	add    %al,(%eax)
    1060:	af                   	scas   %es:(%edi),%eax
    1061:	10 00                	adc    %al,(%eax)
    1063:	00 01                	add    %al,(%ecx)
    1065:	01 05 b5 10 00 00    	add    %eax,0x10b5
    106b:	01 06                	add    %eax,(%esi)
    106d:	bb 10 00 00 00       	mov    $0x10,%ebx
    1072:	21 89 10 00 00 53    	and    %ecx,0x53000010(%ecx)
    1078:	62 00                	bound  %eax,(%eax)
    107a:	00 01                	add    %al,(%ecx)
    107c:	01 05 b5 10 00 00    	add    %eax,0x10b5
    1082:	01 06                	add    %eax,(%esi)
    1084:	bb 10 00 00 00       	mov    $0x10,%ebx
    1089:	22 53 62             	and    0x62(%ebx),%dl
    108c:	00 00                	add    %al,(%eax)
    108e:	01 01                	add    %eax,(%ecx)
    1090:	05 b5 10 00 00       	add    $0x10b5,%eax
    1095:	01 00                	add    %eax,(%eax)
    1097:	00 0b                	add    %cl,(%ebx)
    1099:	04 de                	add    $0xde,%al
    109b:	0f 00 00             	sldtl  (%eax)
    109e:	09 04 de             	or     %eax,(%esi,%ebx,8)
    10a1:	0f 00 00             	sldtl  (%eax)
    10a4:	0b 04 aa             	or     (%edx,%ebp,4),%eax
    10a7:	10 00                	adc    %al,(%eax)
    10a9:	00 0c de             	add    %cl,(%esi,%ebx,8)
    10ac:	0f 00 00             	sldtl  (%eax)
    10af:	0b 04 c7             	or     (%edi,%eax,8),%eax
    10b2:	0f 00 00             	sldtl  (%eax)
    10b5:	09 04 c7             	or     %eax,(%edi,%eax,8)
    10b8:	0f 00 00             	sldtl  (%eax)
    10bb:	0b 04 c1             	or     (%ecx,%eax,8),%eax
    10be:	10 00                	adc    %al,(%eax)
    10c0:	00 0c c7             	add    %cl,(%edi,%eax,8)
    10c3:	0f 00 00             	sldtl  (%eax)
    10c6:	11 93 05 00 00 0a    	adc    %edx,0xa000005(%ebx)
    10cc:	37                   	aaa    
    10cd:	ad                   	lods   %ds:(%esi),%eax
    10ce:	03 00                	add    (%eax),%eax
    10d0:	00 11                	add    %dl,(%ecx)
    10d2:	aa                   	stos   %al,%es:(%edi)
    10d3:	61                   	popa   
    10d4:	00 00                	add    %al,(%eax)
    10d6:	0a 38                	or     (%eax),%bh
    10d8:	c7 02 00 00 11 b6    	movl   $0xb6110000,(%edx)
    10de:	90                   	nop    
    10df:	00 00                	add    %al,(%eax)
    10e1:	0a 39                	or     (%ecx),%bh
    10e3:	b5 02                	mov    $0x2,%ch
    10e5:	00 00                	add    %al,(%eax)
    10e7:	11 dd                	adc    %ebx,%ebp
    10e9:	27                   	daa    
    10ea:	00 00                	add    %al,(%eax)
    10ec:	0a 3a                	or     (%edx),%bh
    10ee:	39 03                	cmp    %eax,(%ebx)
    10f0:	00 00                	add    %al,(%eax)
    10f2:	11 31                	adc    %esi,(%ecx)
    10f4:	7d 00                	jge    10f6 <_init-0x804747e>
    10f6:	00 0c 2b             	add    %cl,(%ebx,%ebp,1)
    10f9:	fd                   	std    
    10fa:	10 00                	adc    %al,(%eax)
    10fc:	00 09                	add    %cl,(%ecx)
    10fe:	04 cf                	add    $0xcf,%al
    1100:	01 00                	add    %eax,(%eax)
    1102:	00 24 09             	add    %ah,(%ecx,%ecx,1)
    1105:	37                   	aaa    
    1106:	00 00                	add    %al,(%eax)
    1108:	0d ad 02 88 11       	or     $0x118802ad,%eax
    110d:	00 00                	add    %al,(%eax)
    110f:	b0 38                	mov    $0x38,%al
    1111:	00 00                	add    %al,(%eax)
    1113:	0c 0d                	or     $0xd,%al
    1115:	b3 03                	mov    $0x3,%bl
    1117:	f9                   	stc    
    1118:	8f 00                	popl   (%eax)
    111a:	00 0d b4 88 11 00    	add    %cl,0x1188b4
    1120:	00 02                	add    %al,(%edx)
    1122:	23 00                	and    (%eax),%eax
    1124:	03 2b                	add    (%ebx),%ebp
    1126:	93                   	xchg   %eax,%ebx
    1127:	00 00                	add    %al,(%eax)
    1129:	0d b5 8e 11 00       	or     $0x118eb5,%eax
    112e:	00 02                	add    %al,(%edx)
    1130:	23 04 03             	and    (%ebx,%eax,1),%eax
    1133:	4a                   	dec    %edx
    1134:	53                   	push   %ebx
    1135:	00 00                	add    %al,(%eax)
    1137:	0d b9 c7 02 00       	or     $0x2c7b9,%eax
    113c:	00 02                	add    %al,(%edx)
    113e:	23 08                	and    (%eax),%ecx
    1140:	04 60                	add    $0x60,%al
    1142:	11 00                	adc    %eax,(%eax)
    1144:	00 01                	add    %al,(%ecx)
    1146:	1f                   	pop    %ds
    1147:	54                   	push   %esp
    1148:	00 00                	add    %al,(%eax)
    114a:	1b 1d 00 00 94 11    	sbb    0x11940000,%ebx
    1150:	00 00                	add    %al,(%eax)
    1152:	01 01                	add    %eax,(%ecx)
    1154:	05 88 11 00 00       	add    $0x1188,%eax
    1159:	01 06                	add    %eax,(%esi)
    115b:	9a 11 00 00 00 07 78 	lcall  $0x7807,$0x11
    1162:	11 00                	adc    %eax,(%eax)
    1164:	00 01                	add    %al,(%ecx)
    1166:	b0 38                	mov    $0x38,%al
    1168:	00 00                	add    %al,(%eax)
    116a:	01 01                	add    %eax,(%ecx)
    116c:	05 88 11 00 00       	add    $0x1188,%eax
    1171:	01 06                	add    %eax,(%esi)
    1173:	9a 11 00 00 00 08 01 	lcall  $0x108,$0x11
    117a:	b0 38                	mov    $0x38,%al
    117c:	00 00                	add    %al,(%eax)
    117e:	01 01                	add    %eax,(%ecx)
    1180:	05 88 11 00 00       	add    $0x1188,%eax
    1185:	01 00                	add    %eax,(%eax)
    1187:	00 09                	add    %cl,(%ecx)
    1189:	04 0a                	add    $0xa,%al
    118b:	11 00                	adc    %eax,(%eax)
    118d:	00 09                	add    %cl,(%ecx)
    118f:	04 49                	add    $0x49,%al
    1191:	06                   	push   %es
    1192:	00 00                	add    %al,(%eax)
    1194:	0b 04 0a             	or     (%edx,%ecx,1),%eax
    1197:	11 00                	adc    %eax,(%eax)
    1199:	00 0b                	add    %cl,(%ebx)
    119b:	04 a0                	add    $0xa0,%al
    119d:	11 00                	adc    %eax,(%eax)
    119f:	00 0c 0a             	add    %cl,(%edx,%ecx,1)
    11a2:	11 00                	adc    %eax,(%eax)
    11a4:	00 25 ca 11 00 00    	add    %ah,0x11ca
    11aa:	e8 6d 00 00 04       	call   400121c <_init-0x4047358>
    11af:	0d c8 26 ab 23       	or     $0x23ab26c8,%eax
    11b4:	00 00                	add    %al,(%eax)
    11b6:	00 26                	add    %ah,(%esi)
    11b8:	cd 2a                	int    $0x2a
    11ba:	00 00                	add    %al,(%eax)
    11bc:	01 26                	add    %esp,(%esi)
    11be:	c0 79 00 00          	sarb   $0x0,0x0(%ecx)
    11c2:	02 26                	add    (%esi),%ah
    11c4:	80 87 00 00 03 00 02 	addb   $0x2,0x30000(%edi)
    11cb:	aa                   	stos   %al,%es:(%edi)
    11cc:	12 00                	adc    (%eax),%al
    11ce:	00 bb 49 00 00 78    	add    %bh,0x78000049(%ebx)
    11d4:	0d d3 03 d5 66       	or     $0x66d503d3,%eax
    11d9:	00 00                	add    %al,(%eax)
    11db:	0d d4 bb 12 00       	or     $0x12bbd4,%eax
    11e0:	00 02                	add    %al,(%edx)
    11e2:	23 00                	and    (%eax),%eax
    11e4:	03 1f                	add    (%edi),%ebx
    11e6:	28 00                	sub    %al,(%eax)
    11e8:	00 0d da 11 13 00    	add    %cl,0x1311da
    11ee:	00 02                	add    %al,(%edx)
    11f0:	23 04 03             	and    (%ebx,%eax,1),%eax
    11f3:	a9 83 00 00 0d       	test   $0xd000083,%eax
    11f8:	dd 3a                	fnstsw (%edx)
    11fa:	13 00                	adc    (%eax),%eax
    11fc:	00 02                	add    %al,(%edx)
    11fe:	23 08                	and    (%eax),%ecx
    1200:	03 9a 8b 00 00 0d    	add    0xd00008b(%edx),%ebx
    1206:	e2 7e                	loop   1286 <_init-0x80472ee>
    1208:	13 00                	adc    (%eax),%eax
    120a:	00 02                	add    %al,(%edx)
    120c:	23 0c 03             	and    (%ebx,%eax,1),%ecx
    120f:	5a                   	pop    %edx
    1210:	31 00                	xor    %eax,(%eax)
    1212:	00 0d e3 93 13 00    	add    %cl,0x1393e3
    1218:	00 02                	add    %al,(%edx)
    121a:	23 10                	and    (%eax),%edx
    121c:	03 70 31             	add    0x31(%eax),%esi
    121f:	00 00                	add    %al,(%eax)
    1221:	0d e4 93 13 00       	or     $0x1393e4,%eax
    1226:	00 02                	add    %al,(%edx)
    1228:	23 14 03             	and    (%ebx,%eax,1),%edx
    122b:	18 2d 00 00 0d e6    	sbb    %ch,0xe60d0000
    1231:	bc 13 00 00 02       	mov    $0x2000013,%esp
    1236:	23 18                	and    (%eax),%ebx
    1238:	03 85 8a 00 00 0d    	add    0xd00008a(%ebp),%eax
    123e:	e7 93                	out    %eax,$0x93
    1240:	13 00                	adc    (%eax),%eax
    1242:	00 02                	add    %al,(%edx)
    1244:	23 1c 03             	and    (%ebx,%eax,1),%ebx
    1247:	73 53                	jae    129c <_init-0x80472d8>
    1249:	00 00                	add    %al,(%eax)
    124b:	0d e9 c7 0f 00       	or     $0xfc7e9,%eax
    1250:	00 02                	add    %al,(%edx)
    1252:	23 20                	and    (%eax),%esp
    1254:	03 e9                	add    %ecx,%ebp
    1256:	56                   	push   %esi
    1257:	00 00                	add    %al,(%eax)
    1259:	0d ea c7 0f 00       	or     $0xfc7ea,%eax
    125e:	00 02                	add    %al,(%edx)
    1260:	23 4c 04 82          	and    0xffffff82(%esp,%eax,1),%ecx
    1264:	12 00                	adc    (%eax),%al
    1266:	00 01                	add    %al,(%ecx)
    1268:	1f                   	pop    %ds
    1269:	54                   	push   %esp
    126a:	00 00                	add    %al,(%eax)
    126c:	35 82 00 00 c2       	xor    $0xc2000082,%eax
    1271:	13 00                	adc    (%eax),%eax
    1273:	00 01                	add    %al,(%ecx)
    1275:	01 05 b5 12 00 00    	add    %eax,0x12b5
    127b:	01 06                	add    %eax,(%esi)
    127d:	c8 13 00 00          	enter  $0x13,$0x0
    1281:	00 07                	add    %al,(%edi)
    1283:	9a 12 00 00 01 bb 49 	lcall  $0x49bb,$0x1000012
    128a:	00 00                	add    %al,(%eax)
    128c:	01 01                	add    %eax,(%ecx)
    128e:	05 b5 12 00 00       	add    $0x12b5,%eax
    1293:	01 06                	add    %eax,(%esi)
    1295:	c8 13 00 00          	enter  $0x13,$0x0
    1299:	00 08                	add    %cl,(%eax)
    129b:	01 bb 49 00 00 01    	add    %edi,0x1000049(%ebx)
    12a1:	01 05 b5 12 00 00    	add    %eax,0x12b5
    12a7:	01 00                	add    %eax,(%eax)
    12a9:	00 1d b5 12 00 00    	add    %bl,0x12b5
    12af:	06                   	push   %es
    12b0:	b5 12                	mov    $0x12,%ch
    12b2:	00 00                	add    %al,(%eax)
    12b4:	00 09                	add    %cl,(%ecx)
    12b6:	04 ca                	add    $0xca,%al
    12b8:	11 00                	adc    %eax,(%eax)
    12ba:	00 09                	add    %cl,(%ecx)
    12bc:	04 aa                	add    $0xaa,%al
    12be:	12 00                	adc    (%eax),%al
    12c0:	00 1c f3             	add    %bl,(%ebx,%esi,8)
    12c3:	12 00                	adc    (%eax),%al
    12c5:	00 a5 11 00 00 06    	add    %ah,0x6000011(%ebp)
    12cb:	b5 12                	mov    $0x12,%ch
    12cd:	00 00                	add    %al,(%eax)
    12cf:	06                   	push   %es
    12d0:	44                   	inc    %esp
    12d1:	09 00                	or     %eax,(%eax)
    12d3:	00 06                	add    %al,(%esi)
    12d5:	f3 12 00             	repz adc (%eax),%al
    12d8:	00 06                	add    %al,(%esi)
    12da:	f3 12 00             	repz adc (%eax),%al
    12dd:	00 06                	add    %al,(%esi)
    12df:	05 13 00 00 06       	add    $0x6000013,%eax
    12e4:	c9                   	leave  
    12e5:	01 00                	add    %eax,(%eax)
    12e7:	00 06                	add    %al,(%esi)
    12e9:	c9                   	leave  
    12ea:	01 00                	add    %eax,(%eax)
    12ec:	00 06                	add    %al,(%esi)
    12ee:	0b 13                	or     (%ebx),%edx
    12f0:	00 00                	add    %al,(%eax)
    12f2:	00 09                	add    %cl,(%ecx)
    12f4:	04 f9                	add    $0xf9,%al
    12f6:	12 00                	adc    (%eax),%al
    12f8:	00 0c fe             	add    %cl,(%esi,%edi,8)
    12fb:	12 00                	adc    (%eax),%al
    12fd:	00 0a                	add    %cl,(%edx)
    12ff:	f3 b6 00             	repz mov $0x0,%dh
    1302:	00 04 05 09 04 f3 12 	add    %al,0x12f30409(,%eax,1)
    1309:	00 00                	add    %al,(%eax)
    130b:	09 04 c9             	or     %eax,(%ecx,%ecx,8)
    130e:	01 00                	add    %eax,(%eax)
    1310:	00 09                	add    %cl,(%ecx)
    1312:	04 c1                	add    $0xc1,%al
    1314:	12 00                	adc    (%eax),%al
    1316:	00 1c 3a             	add    %bl,(%edx,%edi,1)
    1319:	13 00                	adc    (%eax),%eax
    131b:	00 a5 11 00 00 06    	add    %ah,0x6000011(%ebp)
    1321:	b5 12                	mov    $0x12,%ch
    1323:	00 00                	add    %al,(%eax)
    1325:	06                   	push   %es
    1326:	44                   	inc    %esp
    1327:	09 00                	or     %eax,(%eax)
    1329:	00 06                	add    %al,(%esi)
    132b:	c9                   	leave  
    132c:	01 00                	add    %eax,(%eax)
    132e:	00 06                	add    %al,(%esi)
    1330:	c9                   	leave  
    1331:	01 00                	add    %eax,(%eax)
    1333:	00 06                	add    %al,(%esi)
    1335:	0b 13                	or     (%ebx),%edx
    1337:	00 00                	add    %al,(%eax)
    1339:	00 09                	add    %cl,(%ecx)
    133b:	04 17                	add    $0x17,%al
    133d:	13 00                	adc    (%eax),%eax
    133f:	00 1c 72             	add    %bl,(%edx,%esi,2)
    1342:	13 00                	adc    (%eax),%eax
    1344:	00 a5 11 00 00 06    	add    %ah,0x6000011(%ebp)
    134a:	b5 12                	mov    $0x12,%ch
    134c:	00 00                	add    %al,(%eax)
    134e:	06                   	push   %es
    134f:	44                   	inc    %esp
    1350:	09 00                	or     %eax,(%eax)
    1352:	00 06                	add    %al,(%esi)
    1354:	de 02                	fiadd  (%edx)
    1356:	00 00                	add    %al,(%eax)
    1358:	06                   	push   %es
    1359:	de 02                	fiadd  (%edx)
    135b:	00 00                	add    %al,(%eax)
    135d:	06                   	push   %es
    135e:	e1 0d                	loope  136d <_init-0x8047207>
    1360:	00 00                	add    %al,(%eax)
    1362:	06                   	push   %es
    1363:	72 13                	jb     1378 <_init-0x80471fc>
    1365:	00 00                	add    %al,(%eax)
    1367:	06                   	push   %es
    1368:	72 13                	jb     137d <_init-0x80471f7>
    136a:	00 00                	add    %al,(%eax)
    136c:	06                   	push   %es
    136d:	78 13                	js     1382 <_init-0x80471f2>
    136f:	00 00                	add    %al,(%eax)
    1371:	00 09                	add    %cl,(%ecx)
    1373:	04 fe                	add    $0xfe,%al
    1375:	12 00                	adc    (%eax),%al
    1377:	00 09                	add    %cl,(%ecx)
    1379:	04 72                	add    $0x72,%al
    137b:	13 00                	adc    (%eax),%eax
    137d:	00 09                	add    %cl,(%ecx)
    137f:	04 40                	add    $0x40,%al
    1381:	13 00                	adc    (%eax),%eax
    1383:	00 1c 93             	add    %bl,(%ebx,%edx,4)
    1386:	13 00                	adc    (%eax),%eax
    1388:	00 c7                	add    %al,%bh
    138a:	02 00                	add    (%eax),%al
    138c:	00 06                	add    %al,(%esi)
    138e:	b5 12                	mov    $0x12,%ch
    1390:	00 00                	add    %al,(%eax)
    1392:	00 09                	add    %cl,(%ecx)
    1394:	04 84                	add    $0x84,%al
    1396:	13 00                	adc    (%eax),%eax
    1398:	00 1c bc             	add    %bl,(%esp,%edi,4)
    139b:	13 00                	adc    (%eax),%eax
    139d:	00 c7                	add    %al,%bh
    139f:	02 00                	add    (%eax),%al
    13a1:	00 06                	add    %al,(%esi)
    13a3:	b5 12                	mov    $0x12,%ch
    13a5:	00 00                	add    %al,(%eax)
    13a7:	06                   	push   %es
    13a8:	44                   	inc    %esp
    13a9:	09 00                	or     %eax,(%eax)
    13ab:	00 06                	add    %al,(%esi)
    13ad:	de 02                	fiadd  (%edx)
    13af:	00 00                	add    %al,(%eax)
    13b1:	06                   	push   %es
    13b2:	de 02                	fiadd  (%edx)
    13b4:	00 00                	add    %al,(%eax)
    13b6:	06                   	push   %es
    13b7:	39 03                	cmp    %eax,(%ebx)
    13b9:	00 00                	add    %al,(%eax)
    13bb:	00 09                	add    %cl,(%ecx)
    13bd:	04 99                	add    $0x99,%al
    13bf:	13 00                	adc    (%eax),%eax
    13c1:	00 0b                	add    %cl,(%ebx)
    13c3:	04 ca                	add    $0xca,%al
    13c5:	11 00                	adc    %eax,(%eax)
    13c7:	00 0b                	add    %cl,(%ebx)
    13c9:	04 ce                	add    $0xce,%al
    13cb:	13 00                	adc    (%eax),%eax
    13cd:	00 0c ca             	add    %cl,(%edx,%ecx,8)
    13d0:	11 00                	adc    %eax,(%eax)
    13d2:	00 02                	add    %al,(%edx)
    13d4:	0c 15                	or     $0x15,%al
    13d6:	00 00                	add    %al,(%eax)
    13d8:	99                   	cltd   
    13d9:	38 00                	cmp    %al,(%eax)
    13db:	00 bc 0d ef 03 0b 1a 	add    %bh,0x1a0b03ef(%ebp,%ecx,1)
    13e2:	00 00                	add    %al,(%eax)
    13e4:	0d f0 72 13 00       	or     $0x1372f0,%eax
    13e9:	00 02                	add    %al,(%edx)
    13eb:	23 00                	and    (%eax),%eax
    13ed:	03 9a c4 00 00 0d    	add    0xd0000c4(%edx),%ebx
    13f3:	f1                   	icebp  
    13f4:	72 13                	jb     1409 <_init-0x804716b>
    13f6:	00 00                	add    %al,(%eax)
    13f8:	02 23                	add    (%ebx),%ah
    13fa:	04 03                	add    $0x3,%al
    13fc:	24 27                	and    $0x27,%al
    13fe:	00 00                	add    %al,(%eax)
    1400:	0d f2 72 13 00       	or     $0x1372f2,%eax
    1405:	00 02                	add    %al,(%edx)
    1407:	23 08                	and    (%eax),%ecx
    1409:	03 9c 34 00 00 0d f3 	add    0xf30d0000(%esp,%esi,1),%ebx
    1410:	72 13                	jb     1425 <_init-0x804714f>
    1412:	00 00                	add    %al,(%eax)
    1414:	02 23                	add    (%ebx),%ah
    1416:	0c 03                	or     $0x3,%al
    1418:	51                   	push   %ecx
    1419:	ad                   	lods   %ds:(%esi),%eax
    141a:	00 00                	add    %al,(%eax)
    141c:	0d f4 72 13 00       	or     $0x1372f4,%eax
    1421:	00 02                	add    %al,(%edx)
    1423:	23 10                	and    (%eax),%edx
    1425:	03 f2                	add    %edx,%esi
    1427:	a5                   	movsl  %ds:(%esi),%es:(%edi)
    1428:	00 00                	add    %al,(%eax)
    142a:	0d f5 72 13 00       	or     $0x1372f5,%eax
    142f:	00 02                	add    %al,(%edx)
    1431:	23 14 03             	and    (%ebx,%eax,1),%edx
    1434:	b2 6c                	mov    $0x6c,%dl
    1436:	00 00                	add    %al,(%eax)
    1438:	0d f6 72 13 00       	or     $0x1372f6,%eax
    143d:	00 02                	add    %al,(%edx)
    143f:	23 18                	and    (%eax),%ebx
    1441:	03 0a                	add    (%edx),%ecx
    1443:	80 00 00             	addb   $0x0,(%eax)
    1446:	0d f7 72 13 00       	or     $0x1372f7,%eax
    144b:	00 02                	add    %al,(%edx)
    144d:	23 1c 03             	and    (%ebx,%eax,1),%ebx
    1450:	23 7d 00             	and    0x0(%ebp),%edi
    1453:	00 0d f9 72 13 00    	add    %cl,0x1372f9
    1459:	00 02                	add    %al,(%edx)
    145b:	23 20                	and    (%eax),%esp
    145d:	03 bf 70 00 00 0d    	add    0xd000070(%edi),%edi
    1463:	fa                   	cli    
    1464:	72 13                	jb     1479 <_init-0x80470fb>
    1466:	00 00                	add    %al,(%eax)
    1468:	02 23                	add    (%ebx),%ah
    146a:	24 03                	and    $0x3,%al
    146c:	d0 2f                	shrb   (%edi)
    146e:	00 00                	add    %al,(%eax)
    1470:	0d fc 72 13 00       	or     $0x1372fc,%eax
    1475:	00 02                	add    %al,(%edx)
    1477:	23 28                	and    (%eax),%ebp
    1479:	03 b0 39 00 00 0d    	add    0xd000039(%eax),%esi
    147f:	fe 46 08             	incb   0x8(%esi)
    1482:	00 00                	add    %al,(%eax)
    1484:	02 23                	add    (%ebx),%ah
    1486:	2c 03                	sub    $0x3,%al
    1488:	49                   	dec    %ecx
    1489:	00 00                	add    %al,(%eax)
    148b:	00 0d ff 46 08 00    	add    %cl,0x846ff
    1491:	00 02                	add    %al,(%edx)
    1493:	23 34 18             	and    (%eax,%ebx,1),%esi
    1496:	be 49 00 00 0d       	mov    $0xd000049,%esi
    149b:	00 01                	add    %al,(%ecx)
    149d:	ca 11 00             	lret   $0x11
    14a0:	00 02                	add    %al,(%edx)
    14a2:	23 3c 18             	and    (%eax,%ebx,1),%edi
    14a5:	75 c1                	jne    1468 <_init-0x804710c>
    14a7:	00 00                	add    %al,(%eax)
    14a9:	0d 02 01 0c 15       	or     $0x150c0102,%eax
    14ae:	00 00                	add    %al,(%eax)
    14b0:	03 23                	add    (%ebx),%esp
    14b2:	b4 01                	mov    $0x1,%ah
    14b4:	18 c2                	sbb    %al,%dl
    14b6:	b7 00                	mov    $0x0,%bh
    14b8:	00 0d 04 01 22 15    	add    %cl,0x15220104
    14be:	00 00                	add    %al,(%eax)
    14c0:	03 23                	add    (%ebx),%esp
    14c2:	b8 01 04 e4 14       	mov    $0x14e40401,%eax
    14c7:	00 00                	add    %al,(%eax)
    14c9:	01 1f                	add    %ebx,(%edi)
    14cb:	54                   	push   %esp
    14cc:	00 00                	add    %al,(%eax)
    14ce:	c1 aa 00 00 28 15 00 	shrl   $0x0,0x15280000(%edx)
    14d5:	00 01                	add    %al,(%ecx)
    14d7:	01 05 2e 15 00 00    	add    %eax,0x152e
    14dd:	01 06                	add    %eax,(%esi)
    14df:	34 15                	xor    $0x15,%al
    14e1:	00 00                	add    %al,(%eax)
    14e3:	00 07                	add    %al,(%edi)
    14e5:	fc                   	cld    
    14e6:	14 00                	adc    $0x0,%al
    14e8:	00 01                	add    %al,(%ecx)
    14ea:	99                   	cltd   
    14eb:	38 00                	cmp    %al,(%eax)
    14ed:	00 01                	add    %al,(%ecx)
    14ef:	01 05 2e 15 00 00    	add    %eax,0x152e
    14f5:	01 06                	add    %eax,(%esi)
    14f7:	34 15                	xor    $0x15,%al
    14f9:	00 00                	add    %al,(%eax)
    14fb:	00 08                	add    %cl,(%eax)
    14fd:	01 99 38 00 00 01    	add    %ebx,0x1000038(%ecx)
    1503:	01 05 2e 15 00 00    	add    %eax,0x152e
    1509:	01 00                	add    %eax,(%eax)
    150b:	00 0d 1c 15 00 00    	add    %cl,0x151c
    1511:	fe                   	(bad)  
    1512:	12 00                	adc    (%eax),%al
    1514:	00 0e                	add    %cl,(%esi)
    1516:	97                   	xchg   %eax,%edi
    1517:	02 00                	add    (%eax),%al
    1519:	00 00                	add    %al,(%eax)
    151b:	00 0f                	add    %cl,(%edi)
    151d:	8a 66 00             	mov    0x0(%esi),%ah
    1520:	00 01                	add    %al,(%ecx)
    1522:	09 04 1c             	or     %eax,(%esp,%ebx,1)
    1525:	15 00 00 0b 04       	adc    $0x40b0000,%eax
    152a:	d3 13                	rcll   %cl,(%ebx)
    152c:	00 00                	add    %al,(%eax)
    152e:	09 04 d3             	or     %eax,(%ebx,%edx,8)
    1531:	13 00                	adc    (%eax),%eax
    1533:	00 0b                	add    %cl,(%ebx)
    1535:	04 3a                	add    $0x3a,%al
    1537:	15 00 00 0c d3       	adc    $0xd30c0000,%eax
    153c:	13 00                	adc    (%eax),%eax
    153e:	00 0d 4f 15 00 00    	add    %cl,0x154f
    1544:	cf                   	iret   
    1545:	01 00                	add    %eax,(%eax)
    1547:	00 0e                	add    %cl,(%esi)
    1549:	97                   	xchg   %eax,%edi
    154a:	02 00                	add    (%eax),%al
    154c:	00 00                	add    %al,(%eax)
    154e:	00 09                	add    %cl,(%ecx)
    1550:	04 03                	add    $0x3,%al
    1552:	11 00                	adc    %eax,(%eax)
    1554:	00 0d 65 15 00 00    	add    %cl,0x1565
    155a:	cf                   	iret   
    155b:	01 00                	add    %eax,(%eax)
    155d:	00 0e                	add    %cl,(%esi)
    155f:	97                   	xchg   %eax,%edi
    1560:	02 00                	add    (%eax),%al
    1562:	00 33                	add    %dh,(%ebx)
    1564:	00 0b                	add    %cl,(%ebx)
    1566:	04 49                	add    $0x49,%al
    1568:	06                   	push   %es
    1569:	00 00                	add    %al,(%eax)
    156b:	0b 04 71             	or     (%ecx,%esi,2),%eax
    156e:	15 00 00 0c 49       	adc    $0x490c0000,%eax
    1573:	06                   	push   %es
    1574:	00 00                	add    %al,(%eax)
    1576:	19 38                	sbb    %edi,(%eax)
    1578:	b7 00                	mov    $0x0,%bh
    157a:	00 0d 5f 01 82 15    	add    %cl,0x1582015f
    1580:	00 00                	add    %al,(%eax)
    1582:	1c 9b                	sbb    $0x9b,%al
    1584:	15 00 00 eb 05       	adc    $0x5eb0000,%eax
    1589:	00 00                	add    %al,(%eax)
    158b:	06                   	push   %es
    158c:	21 03                	and    %eax,(%ebx)
    158e:	00 00                	add    %al,(%eax)
    1590:	06                   	push   %es
    1591:	c9                   	leave  
    1592:	01 00                	add    %eax,(%eax)
    1594:	00 06                	add    %al,(%esi)
    1596:	39 03                	cmp    %eax,(%ebx)
    1598:	00 00                	add    %al,(%eax)
    159a:	00 19                	add    %bl,(%ecx)
    159c:	6f                   	outsl  %ds:(%esi),(%dx)
    159d:	15 00 00 0d 68       	adc    $0x680d0000,%eax
    15a2:	01 a7 15 00 00 1c    	add    %esp,0x1c000015(%edi)
    15a8:	c0 15 00 00 eb 05 00 	rclb   $0x0,0x5eb0000
    15af:	00 06                	add    %al,(%esi)
    15b1:	21 03                	and    %eax,(%ebx)
    15b3:	00 00                	add    %al,(%eax)
    15b5:	06                   	push   %es
    15b6:	de 02                	fiadd  (%edx)
    15b8:	00 00                	add    %al,(%eax)
    15ba:	06                   	push   %es
    15bb:	39 03                	cmp    %eax,(%ebx)
    15bd:	00 00                	add    %al,(%eax)
    15bf:	00 19                	add    %bl,(%ecx)
    15c1:	40                   	inc    %eax
    15c2:	8a 00                	mov    (%eax),%al
    15c4:	00 0d 70 01 cc 15    	add    %cl,0x15cc0170
    15ca:	00 00                	add    %al,(%eax)
    15cc:	1c e5                	sbb    $0xe5,%al
    15ce:	15 00 00 c7 02       	adc    $0x2c70000,%eax
    15d3:	00 00                	add    %al,(%eax)
    15d5:	06                   	push   %es
    15d6:	21 03                	and    %eax,(%ebx)
    15d8:	00 00                	add    %al,(%eax)
    15da:	06                   	push   %es
    15db:	e5 15                	in     $0x15,%eax
    15dd:	00 00                	add    %al,(%eax)
    15df:	06                   	push   %es
    15e0:	c7 02 00 00 00 09    	movl   $0x9000000,(%edx)
    15e6:	04 6e                	add    $0x6e,%al
    15e8:	04 00                	add    $0x0,%al
    15ea:	00 19                	add    %bl,(%ecx)
    15ec:	cf                   	iret   
    15ed:	74 00                	je     15ef <_init-0x8046f85>
    15ef:	00 0d 73 01 f7 15    	add    %cl,0x15f70173
    15f5:	00 00                	add    %al,(%eax)
    15f7:	1c 06                	sbb    $0x6,%al
    15f9:	16                   	push   %ss
    15fa:	00 00                	add    %al,(%eax)
    15fc:	c7 02 00 00 06 21    	movl   $0x21060000,(%edx)
    1602:	03 00                	add    (%eax),%eax
    1604:	00 00                	add    %al,(%eax)
    1606:	19 09                	sbb    %ecx,(%ecx)
    1608:	b6 00                	mov    $0x0,%dh
    160a:	00 0d 78 01 76 15    	add    %cl,0x15760178
    1610:	00 00                	add    %al,(%eax)
    1612:	19 49 9f             	sbb    %ecx,0xffffff9f(%ecx)
    1615:	00 00                	add    %al,(%eax)
    1617:	0d 79 01 9b 15       	or     $0x159b0179,%eax
    161c:	00 00                	add    %al,(%eax)
    161e:	19 44 11 00          	sbb    %eax,0x0(%ecx,%edx,1)
    1622:	00 0d 7a 01 c0 15    	add    %cl,0x15c0017a
    1628:	00 00                	add    %al,(%eax)
    162a:	19 4d 8a             	sbb    %ecx,0xffffff8a(%ebp)
    162d:	00 00                	add    %al,(%eax)
    162f:	0d 7b 01 eb 15       	or     $0x15eb017b,%eax
    1634:	00 00                	add    %al,(%eax)
    1636:	19 f5                	sbb    %esi,%ebp
    1638:	81 00 00 0d 84 01    	addl   $0x1840d00,(%eax)
    163e:	42                   	inc    %edx
    163f:	16                   	push   %ss
    1640:	00 00                	add    %al,(%eax)
    1642:	17                   	pop    %ss
    1643:	d5 16                	aad    $0x16
    1645:	00 00                	add    %al,(%eax)
    1647:	f5                   	cmc    
    1648:	81 00 00 10 0d 7f    	addl   $0x7f0d1000,(%eax)
    164e:	01 18                	add    %ebx,(%eax)
    1650:	7d 03                	jge    1655 <_init-0x8046f1f>
    1652:	00 00                	add    %al,(%eax)
    1654:	0d 80 01 d5 16       	or     $0x16d50180,%eax
    1659:	00 00                	add    %al,(%eax)
    165b:	02 23                	add    (%ebx),%ah
    165d:	00 18                	add    %bl,(%eax)
    165f:	11 bf 00 00 0d 81    	adc    %edi,0x810d0000(%edi)
    1665:	01 db                	add    %ebx,%ebx
    1667:	16                   	push   %ss
    1668:	00 00                	add    %al,(%eax)
    166a:	02 23                	add    (%ebx),%ah
    166c:	04 18                	add    $0x18,%al
    166e:	d0 62 00             	shlb   0x0(%edx)
    1671:	00 0d 82 01 e1 16    	add    %cl,0x16e10182
    1677:	00 00                	add    %al,(%eax)
    1679:	02 23                	add    (%ebx),%ah
    167b:	08 18                	or     %bl,(%eax)
    167d:	07                   	pop    %es
    167e:	9d                   	popf   
    167f:	00 00                	add    %al,(%eax)
    1681:	0d 83 01 e7 16       	or     $0x16e70183,%eax
    1686:	00 00                	add    %al,(%eax)
    1688:	02 23                	add    (%ebx),%ah
    168a:	0c 23                	or     $0x23,%al
    168c:	5d                   	pop    %ebp
    168d:	62 00                	bound  %eax,(%eax)
    168f:	00 42 16             	add    %al,0x16(%edx)
    1692:	00 00                	add    %al,(%eax)
    1694:	14 af                	adc    $0xaf,%al
    1696:	16                   	push   %ss
    1697:	00 00                	add    %al,(%eax)
    1699:	1f                   	pop    %ds
    169a:	54                   	push   %esp
    169b:	00 00                	add    %al,(%eax)
    169d:	ed                   	in     (%dx),%eax
    169e:	16                   	push   %ss
    169f:	00 00                	add    %al,(%eax)
    16a1:	01 01                	add    %eax,(%ecx)
    16a3:	05 f3 16 00 00       	add    $0x16f3,%eax
    16a8:	01 06                	add    %eax,(%esi)
    16aa:	f9                   	stc    
    16ab:	16                   	push   %ss
    16ac:	00 00                	add    %al,(%eax)
    16ae:	00 21                	add    %ah,(%ecx)
    16b0:	c6 16 00             	movb   $0x0,(%esi)
    16b3:	00 5d 62             	add    %bl,0x62(%ebp)
    16b6:	00 00                	add    %al,(%eax)
    16b8:	01 01                	add    %eax,(%ecx)
    16ba:	05 f3 16 00 00       	add    $0x16f3,%eax
    16bf:	01 06                	add    %eax,(%esi)
    16c1:	f9                   	stc    
    16c2:	16                   	push   %ss
    16c3:	00 00                	add    %al,(%eax)
    16c5:	00 22                	add    %ah,(%edx)
    16c7:	5d                   	pop    %ebp
    16c8:	62 00                	bound  %eax,(%eax)
    16ca:	00 01                	add    %al,(%ecx)
    16cc:	01 05 f3 16 00 00    	add    %eax,0x16f3
    16d2:	01 00                	add    %eax,(%eax)
    16d4:	00 09                	add    %cl,(%ecx)
    16d6:	04 76                	add    $0x76,%al
    16d8:	15 00 00 09 04       	adc    $0x4090000,%eax
    16dd:	9b                   	fwait
    16de:	15 00 00 09 04       	adc    $0x4090000,%eax
    16e3:	c0 15 00 00 09 04 eb 	rclb   $0xeb,0x4090000
    16ea:	15 00 00 0b 04       	adc    $0x40b0000,%eax
    16ef:	42                   	inc    %edx
    16f0:	16                   	push   %ss
    16f1:	00 00                	add    %al,(%eax)
    16f3:	09 04 42             	or     %eax,(%edx,%eax,2)
    16f6:	16                   	push   %ss
    16f7:	00 00                	add    %al,(%eax)
    16f9:	0b 04 ff             	or     (%edi,%edi,8),%eax
    16fc:	16                   	push   %ss
    16fd:	00 00                	add    %al,(%eax)
    16ff:	0c 42                	or     $0x42,%al
    1701:	16                   	push   %ss
    1702:	00 00                	add    %al,(%eax)
    1704:	19 f9                	sbb    %edi,%ecx
    1706:	81 00 00 0d 85 01    	addl   $0x1850d00,(%eax)
    170c:	42                   	inc    %edx
    170d:	16                   	push   %ss
    170e:	00 00                	add    %al,(%eax)
    1710:	11 38                	adc    %edi,(%eax)
    1712:	7d 00                	jge    1714 <_init-0x8046e60>
    1714:	00 08                	add    %cl,(%eax)
    1716:	4d                   	dec    %ebp
    1717:	f2 10 00             	repnz adc %al,(%eax)
    171a:	00 11                	add    %dl,(%ecx)
    171c:	69 c0 00 00 08 58    	imul   $0x58080000,%eax,%eax
    1722:	60                   	pusha  
    1723:	09 00                	or     %eax,(%eax)
    1725:	00 11                	add    %dl,(%ecx)
    1727:	a1 0b 00 00 08       	mov    0x800000b,%eax
    172c:	5e                   	pop    %esi
    172d:	f4                   	hlt    
    172e:	09 00                	or     %eax,(%eax)
    1730:	00 02                	add    %al,(%edx)
    1732:	a1 17 00 00 78       	mov    0x78000017,%eax
    1737:	80 00 00             	addb   $0x0,(%eax)
    173a:	08 0e                	or     %cl,(%esi)
    173c:	77 03                	ja     1741 <_init-0x8046e33>
    173e:	93                   	xchg   %eax,%ebx
    173f:	c4 00                	les    (%eax),%eax
    1741:	00 0e                	add    %cl,(%esi)
    1743:	78 46                	js     178b <_init-0x8046de9>
    1745:	05 00 00 02 23       	add    $0x23020000,%eax
    174a:	00 03                	add    %al,(%ebx)
    174c:	8b 31                	mov    (%ecx),%esi
    174e:	00 00                	add    %al,(%eax)
    1750:	0e                   	push   %cs
    1751:	79 67                	jns    17ba <_init-0x8046dba>
    1753:	04 00                	add    $0x0,%al
    1755:	00 02                	add    %al,(%edx)
    1757:	23 04 04             	and    (%esp,%eax,1),%eax
    175a:	79 17                	jns    1773 <_init-0x8046e01>
    175c:	00 00                	add    %al,(%eax)
    175e:	01 1f                	add    %ebx,(%edi)
    1760:	54                   	push   %esp
    1761:	00 00                	add    %al,(%eax)
    1763:	bd 4a 00 00 a1       	mov    $0xa100004a,%ebp
    1768:	17                   	pop    %ss
    1769:	00 00                	add    %al,(%eax)
    176b:	01 01                	add    %eax,(%ecx)
    176d:	05 a7 17 00 00       	add    $0x17a7,%eax
    1772:	01 06                	add    %eax,(%esi)
    1774:	ad                   	lods   %ds:(%esi),%eax
    1775:	17                   	pop    %ss
    1776:	00 00                	add    %al,(%eax)
    1778:	00 07                	add    %al,(%edi)
    177a:	91                   	xchg   %eax,%ecx
    177b:	17                   	pop    %ss
    177c:	00 00                	add    %al,(%eax)
    177e:	01 78 80             	add    %edi,0xffffff80(%eax)
    1781:	00 00                	add    %al,(%eax)
    1783:	01 01                	add    %eax,(%ecx)
    1785:	05 a7 17 00 00       	add    $0x17a7,%eax
    178a:	01 06                	add    %eax,(%esi)
    178c:	ad                   	lods   %ds:(%esi),%eax
    178d:	17                   	pop    %ss
    178e:	00 00                	add    %al,(%eax)
    1790:	00 08                	add    %cl,(%eax)
    1792:	01 78 80             	add    %edi,0xffffff80(%eax)
    1795:	00 00                	add    %al,(%eax)
    1797:	01 01                	add    %eax,(%ecx)
    1799:	05 a7 17 00 00       	add    $0x17a7,%eax
    179e:	01 00                	add    %eax,(%eax)
    17a0:	00 0b                	add    %cl,(%ebx)
    17a2:	04 31                	add    $0x31,%al
    17a4:	17                   	pop    %ss
    17a5:	00 00                	add    %al,(%eax)
    17a7:	09 04 31             	or     %eax,(%ecx,%esi,1)
    17aa:	17                   	pop    %ss
    17ab:	00 00                	add    %al,(%eax)
    17ad:	0b 04 b3             	or     (%ebx,%esi,4),%eax
    17b0:	17                   	pop    %ss
    17b1:	00 00                	add    %al,(%eax)
    17b3:	0c 31                	or     $0x31,%al
    17b5:	17                   	pop    %ss
    17b6:	00 00                	add    %al,(%eax)
    17b8:	02 1a                	add    (%edx),%bl
    17ba:	18 00                	sbb    %al,(%eax)
    17bc:	00 b1 40 00 00 04    	add    %dh,0x4000040(%ecx)
    17c2:	0f 3f                	(bad)  
    17c4:	03 e5                	add    %ebp,%esp
    17c6:	48                   	dec    %eax
    17c7:	00 00                	add    %al,(%eax)
    17c9:	0f 40 c7             	cmovo  %edi,%eax
    17cc:	02 00                	add    (%eax),%al
    17ce:	00 02                	add    %al,(%edx)
    17d0:	23 00                	and    (%eax),%eax
    17d2:	04 f2                	add    $0xf2,%al
    17d4:	17                   	pop    %ss
    17d5:	00 00                	add    %al,(%eax)
    17d7:	01 1f                	add    %ebx,(%edi)
    17d9:	54                   	push   %esp
    17da:	00 00                	add    %al,(%eax)
    17dc:	7b 05                	jnp    17e3 <_init-0x8046d91>
    17de:	00 00                	add    %al,(%eax)
    17e0:	1a 18                	sbb    (%eax),%bl
    17e2:	00 00                	add    %al,(%eax)
    17e4:	01 01                	add    %eax,(%ecx)
    17e6:	05 20 18 00 00       	add    $0x1820,%eax
    17eb:	01 06                	add    %eax,(%esi)
    17ed:	26 18 00             	sbb    %al,%es:(%eax)
    17f0:	00 00                	add    %al,(%eax)
    17f2:	07                   	pop    %es
    17f3:	0a 18                	or     (%eax),%bl
    17f5:	00 00                	add    %al,(%eax)
    17f7:	01 b1 40 00 00 01    	add    %esi,0x1000040(%ecx)
    17fd:	01 05 20 18 00 00    	add    %eax,0x1820
    1803:	01 06                	add    %eax,(%esi)
    1805:	26 18 00             	sbb    %al,%es:(%eax)
    1808:	00 00                	add    %al,(%eax)
    180a:	08 01                	or     %al,(%ecx)
    180c:	b1 40                	mov    $0x40,%cl
    180e:	00 00                	add    %al,(%eax)
    1810:	01 01                	add    %eax,(%ecx)
    1812:	05 20 18 00 00       	add    $0x1820,%eax
    1817:	01 00                	add    %eax,(%eax)
    1819:	00 0b                	add    %cl,(%ebx)
    181b:	04 b8                	add    $0xb8,%al
    181d:	17                   	pop    %ss
    181e:	00 00                	add    %al,(%eax)
    1820:	09 04 b8             	or     %eax,(%eax,%edi,4)
    1823:	17                   	pop    %ss
    1824:	00 00                	add    %al,(%eax)
    1826:	0b 04 2c             	or     (%esp,%ebp,1),%eax
    1829:	18 00                	sbb    %al,(%eax)
    182b:	00 0c b8             	add    %cl,(%eax,%edi,4)
    182e:	17                   	pop    %ss
    182f:	00 00                	add    %al,(%eax)
    1831:	02 93 18 00 00 af    	add    0xaf000018(%ebx),%dl
    1837:	40                   	inc    %eax
    1838:	00 00                	add    %al,(%eax)
    183a:	04 0f                	add    $0xf,%al
    183c:	54                   	push   %esp
    183d:	03 e5                	add    %ebp,%esp
    183f:	48                   	dec    %eax
    1840:	00 00                	add    %al,(%eax)
    1842:	0f 55 c7             	andnps %xmm7,%xmm0
    1845:	02 00                	add    (%eax),%al
    1847:	00 02                	add    %al,(%edx)
    1849:	23 00                	and    (%eax),%eax
    184b:	04 6b                	add    $0x6b,%al
    184d:	18 00                	sbb    %al,(%eax)
    184f:	00 01                	add    %al,(%ecx)
    1851:	1f                   	pop    %ds
    1852:	54                   	push   %esp
    1853:	00 00                	add    %al,(%eax)
    1855:	37                   	aaa    
    1856:	1a 00                	sbb    (%eax),%al
    1858:	00 93 18 00 00 01    	add    %dl,0x1000018(%ebx)
    185e:	01 05 99 18 00 00    	add    %eax,0x1899
    1864:	01 06                	add    %eax,(%esi)
    1866:	9f                   	lahf   
    1867:	18 00                	sbb    %al,(%eax)
    1869:	00 00                	add    %al,(%eax)
    186b:	07                   	pop    %es
    186c:	83 18 00             	sbbl   $0x0,(%eax)
    186f:	00 01                	add    %al,(%ecx)
    1871:	af                   	scas   %es:(%edi),%eax
    1872:	40                   	inc    %eax
    1873:	00 00                	add    %al,(%eax)
    1875:	01 01                	add    %eax,(%ecx)
    1877:	05 99 18 00 00       	add    $0x1899,%eax
    187c:	01 06                	add    %eax,(%esi)
    187e:	9f                   	lahf   
    187f:	18 00                	sbb    %al,(%eax)
    1881:	00 00                	add    %al,(%eax)
    1883:	08 01                	or     %al,(%ecx)
    1885:	af                   	scas   %es:(%edi),%eax
    1886:	40                   	inc    %eax
    1887:	00 00                	add    %al,(%eax)
    1889:	01 01                	add    %eax,(%ecx)
    188b:	05 99 18 00 00       	add    $0x1899,%eax
    1890:	01 00                	add    %eax,(%eax)
    1892:	00 0b                	add    %cl,(%ebx)
    1894:	04 31                	add    $0x31,%al
    1896:	18 00                	sbb    %al,(%eax)
    1898:	00 09                	add    %cl,(%ecx)
    189a:	04 31                	add    $0x31,%al
    189c:	18 00                	sbb    %al,(%eax)
    189e:	00 0b                	add    %cl,(%ebx)
    18a0:	04 a5                	add    $0xa5,%al
    18a2:	18 00                	sbb    %al,(%eax)
    18a4:	00 0c 31             	add    %cl,(%ecx,%esi,1)
    18a7:	18 00                	sbb    %al,(%eax)
    18a9:	00 11                	add    %dl,(%ecx)
    18ab:	3b 86 00 00 0f 62    	cmp    0x620f0000(%esi),%eax
    18b1:	7e 03                	jle    18b6 <_init-0x8046cbe>
    18b3:	00 00                	add    %al,(%eax)
    18b5:	11 fa                	adc    %edi,%edx
    18b7:	22 00                	and    (%eax),%al
    18b9:	00 0f                	add    %cl,(%edi)
    18bb:	6c                   	insb   (%dx),%es:(%edi)
    18bc:	c0 18 00             	rcrb   $0x0,(%eax)
    18bf:	00 02                	add    %al,(%edx)
    18c1:	24 19                	and    $0x19,%al
    18c3:	00 00                	add    %al,(%eax)
    18c5:	fa                   	cli    
    18c6:	22 00                	and    (%eax),%al
    18c8:	00 80 0f 6a 03 40    	add    %al,0x40036a0f(%eax)
    18ce:	1c 00                	sbb    $0x0,%al
    18d0:	00 0f                	add    %cl,(%edi)
    18d2:	6b 24 19 00          	imul   $0x0,(%ecx,%ebx,1),%esp
    18d6:	00 02                	add    %al,(%edx)
    18d8:	23 00                	and    (%eax),%eax
    18da:	23 62 62             	and    0x62(%edx),%esp
    18dd:	00 00                	add    %al,(%eax)
    18df:	c0 18 00             	rcrb   $0x0,(%eax)
    18e2:	00 14 fe             	add    %dl,(%esi,%edi,8)
    18e5:	18 00                	sbb    %al,(%eax)
    18e7:	00 1f                	add    %bl,(%edi)
    18e9:	54                   	push   %esp
    18ea:	00 00                	add    %al,(%eax)
    18ec:	34 19                	xor    $0x19,%al
    18ee:	00 00                	add    %al,(%eax)
    18f0:	01 01                	add    %eax,(%ecx)
    18f2:	05 3a 19 00 00       	add    $0x193a,%eax
    18f7:	01 06                	add    %eax,(%esi)
    18f9:	40                   	inc    %eax
    18fa:	19 00                	sbb    %eax,(%eax)
    18fc:	00 00                	add    %al,(%eax)
    18fe:	21 15 19 00 00 62    	and    %edx,0x62000019
    1904:	62 00                	bound  %eax,(%eax)
    1906:	00 01                	add    %al,(%ecx)
    1908:	01 05 3a 19 00 00    	add    %eax,0x193a
    190e:	01 06                	add    %eax,(%esi)
    1910:	40                   	inc    %eax
    1911:	19 00                	sbb    %eax,(%eax)
    1913:	00 00                	add    %al,(%eax)
    1915:	22 62 62             	and    0x62(%edx),%ah
    1918:	00 00                	add    %al,(%eax)
    191a:	01 01                	add    %eax,(%ecx)
    191c:	05 3a 19 00 00       	add    $0x193a,%eax
    1921:	01 00                	add    %eax,(%eax)
    1923:	00 0d 34 19 00 00    	add    %cl,0x1934
    1929:	aa                   	stos   %al,%es:(%edi)
    192a:	18 00                	sbb    %al,(%eax)
    192c:	00 0e                	add    %cl,(%esi)
    192e:	97                   	xchg   %eax,%edi
    192f:	02 00                	add    (%eax),%al
    1931:	00 1f                	add    %bl,(%edi)
    1933:	00 0b                	add    %cl,(%ebx)
    1935:	04 c0                	add    $0xc0,%al
    1937:	18 00                	sbb    %al,(%eax)
    1939:	00 09                	add    %cl,(%ecx)
    193b:	04 c0                	add    $0xc0,%al
    193d:	18 00                	sbb    %al,(%eax)
    193f:	00 0b                	add    %cl,(%ebx)
    1941:	04 46                	add    $0x46,%al
    1943:	19 00                	sbb    %eax,(%eax)
    1945:	00 0c c0             	add    %cl,(%eax,%eax,8)
    1948:	18 00                	sbb    %al,(%eax)
    194a:	00 11                	add    %dl,(%ecx)
    194c:	be bc 00 00 0e       	mov    $0xe0000bc,%esi
    1951:	3c 1a                	cmp    $0x1a,%al
    1953:	05 00 00 11 7a       	add    $0x7a110000,%eax
    1958:	2f                   	das    
    1959:	00 00                	add    %al,(%eax)
    195b:	0e                   	push   %cs
    195c:	4c                   	dec    %esp
    195d:	46                   	inc    %esi
    195e:	05 00 00 11 9c       	add    $0x9c110000,%eax
    1963:	5f                   	pop    %edi
    1964:	00 00                	add    %al,(%eax)
    1966:	0e                   	push   %cs
    1967:	5c                   	pop    %esp
    1968:	88 05 00 00 11 bc    	mov    %al,0xbc110000
    196e:	25 00 00 0e 68       	and    $0x680e0000,%eax
    1973:	93                   	xchg   %eax,%ebx
    1974:	05 00 00 27 62       	add    $0x62270000,%eax
    1979:	1a 00                	sbb    (%eax),%al
    197b:	00 74 6d 00          	add    %dh,0x0(%ebp,%ebp,2)
    197f:	2c 0e                	sub    $0xe,%al
    1981:	84 03                	test   %al,(%ebx)
    1983:	aa                   	stos   %al,%es:(%edi)
    1984:	62 00                	bound  %eax,(%eax)
    1986:	00 0e                	add    %cl,(%esi)
    1988:	85 c7                	test   %eax,%edi
    198a:	02 00                	add    (%eax),%al
    198c:	00 02                	add    %al,(%edx)
    198e:	23 00                	and    (%eax),%eax
    1990:	03 f4                	add    %esp,%esi
    1992:	14 00                	adc    $0x0,%al
    1994:	00 0e                	add    %cl,(%esi)
    1996:	86 c7                	xchg   %al,%bh
    1998:	02 00                	add    (%eax),%al
    199a:	00 02                	add    %al,(%edx)
    199c:	23 04 03             	and    (%ebx,%eax,1),%eax
    199f:	7b 77                	jnp    1a18 <_init-0x8046b5c>
    19a1:	00 00                	add    %al,(%eax)
    19a3:	0e                   	push   %cs
    19a4:	87 c7                	xchg   %eax,%edi
    19a6:	02 00                	add    (%eax),%al
    19a8:	00 02                	add    %al,(%edx)
    19aa:	23 08                	and    (%eax),%ecx
    19ac:	03 09                	add    (%ecx),%ecx
    19ae:	48                   	dec    %eax
    19af:	00 00                	add    %al,(%eax)
    19b1:	0e                   	push   %cs
    19b2:	88 c7                	mov    %al,%bh
    19b4:	02 00                	add    (%eax),%al
    19b6:	00 02                	add    %al,(%edx)
    19b8:	23 0c 03             	and    (%ebx,%eax,1),%ecx
    19bb:	d0 26                	shlb   (%esi)
    19bd:	00 00                	add    %al,(%eax)
    19bf:	0e                   	push   %cs
    19c0:	89 c7                	mov    %eax,%edi
    19c2:	02 00                	add    (%eax),%al
    19c4:	00 02                	add    %al,(%edx)
    19c6:	23 10                	and    (%eax),%edx
    19c8:	03 b3 76 00 00 0e    	add    0xe000076(%ebx),%esi
    19ce:	8a c7                	mov    %bh,%al
    19d0:	02 00                	add    (%eax),%al
    19d2:	00 02                	add    %al,(%edx)
    19d4:	23 14 03             	and    (%ebx,%eax,1),%edx
    19d7:	16                   	push   %ss
    19d8:	55                   	push   %ebp
    19d9:	00 00                	add    %al,(%eax)
    19db:	0e                   	push   %cs
    19dc:	8b c7                	mov    %edi,%eax
    19de:	02 00                	add    (%eax),%al
    19e0:	00 02                	add    %al,(%edx)
    19e2:	23 18                	and    (%eax),%ebx
    19e4:	03 2d 65 00 00 0e    	add    0xe000065,%ebp
    19ea:	8c c7                	mov    %es,%edi
    19ec:	02 00                	add    (%eax),%al
    19ee:	00 02                	add    %al,(%edx)
    19f0:	23 1c 03             	and    (%ebx,%eax,1),%ebx
    19f3:	a7                   	cmpsl  %es:(%edi),%ds:(%esi)
    19f4:	c4 00                	les    (%eax),%eax
    19f6:	00 0e                	add    %cl,(%esi)
    19f8:	8d                   	lea    (bad),%eax
    19f9:	c7 02 00 00 02 23    	movl   $0x23020000,(%edx)
    19ff:	20 03                	and    %al,(%ebx)
    1a01:	4a                   	dec    %edx
    1a02:	9e                   	sahf   
    1a03:	00 00                	add    %al,(%eax)
    1a05:	0e                   	push   %cs
    1a06:	90                   	nop    
    1a07:	67 04 00             	addr16 add $0x0,%al
    1a0a:	00 02                	add    %al,(%edx)
    1a0c:	23 24 03             	and    (%ebx,%eax,1),%esp
    1a0f:	d5 27                	aad    $0x27
    1a11:	00 00                	add    %al,(%eax)
    1a13:	0e                   	push   %cs
    1a14:	91                   	xchg   %eax,%ecx
    1a15:	de 02                	fiadd  (%edx)
    1a17:	00 00                	add    %al,(%eax)
    1a19:	02 23                	add    (%ebx),%ah
    1a1b:	28 04 3c             	sub    %al,(%esp,%edi,1)
    1a1e:	1a 00                	sbb    (%eax),%al
    1a20:	00 01                	add    %al,(%ecx)
    1a22:	1f                   	pop    %ds
    1a23:	54                   	push   %esp
    1a24:	00 00                	add    %al,(%eax)
    1a26:	7c b6                	jl     19de <_init-0x8046b96>
    1a28:	00 00                	add    %al,(%eax)
    1a2a:	62 1a                	bound  %ebx,(%edx)
    1a2c:	00 00                	add    %al,(%eax)
    1a2e:	01 01                	add    %eax,(%ecx)
    1a30:	05 68 1a 00 00       	add    $0x1a68,%eax
    1a35:	01 06                	add    %eax,(%esi)
    1a37:	6e                   	outsb  %ds:(%esi),(%dx)
    1a38:	1a 00                	sbb    (%eax),%al
    1a3a:	00 00                	add    %al,(%eax)
    1a3c:	28 53 1a             	sub    %dl,0x1a(%ebx)
    1a3f:	00 00                	add    %al,(%eax)
    1a41:	01 74 6d 00          	add    %esi,0x0(%ebp,%ebp,2)
    1a45:	01 01                	add    %eax,(%ecx)
    1a47:	05 68 1a 00 00       	add    $0x1a68,%eax
    1a4c:	01 06                	add    %eax,(%esi)
    1a4e:	6e                   	outsb  %ds:(%esi),(%dx)
    1a4f:	1a 00                	sbb    (%eax),%al
    1a51:	00 00                	add    %al,(%eax)
    1a53:	29 01                	sub    %eax,(%ecx)
    1a55:	74 6d                	je     1ac4 <_init-0x8046ab0>
    1a57:	00 01                	add    %al,(%ecx)
    1a59:	01 05 68 1a 00 00    	add    %eax,0x1a68
    1a5f:	01 00                	add    %eax,(%eax)
    1a61:	00 0b                	add    %cl,(%ebx)
    1a63:	04 77                	add    $0x77,%al
    1a65:	19 00                	sbb    %eax,(%eax)
    1a67:	00 09                	add    %cl,(%ecx)
    1a69:	04 77                	add    $0x77,%al
    1a6b:	19 00                	sbb    %eax,(%eax)
    1a6d:	00 0b                	add    %cl,(%ebx)
    1a6f:	04 74                	add    $0x74,%al
    1a71:	1a 00                	sbb    (%eax),%al
    1a73:	00 0c 77             	add    %cl,(%edi,%esi,2)
    1a76:	19 00                	sbb    %eax,(%eax)
    1a78:	00 02                	add    %al,(%edx)
    1a7a:	e9 1a 00 00 38       	jmp    38001a99 <_end+0x2ffb7f95>
    1a7f:	00 00                	add    %al,(%eax)
    1a81:	00 10                	add    %dl,(%eax)
    1a83:	0e                   	push   %cs
    1a84:	a0 03 c0 c3 00       	mov    0xc3c003,%al
    1a89:	00 0e                	add    %cl,(%esi)
    1a8b:	a1 31 17 00 00       	mov    0x1731,%eax
    1a90:	02 23                	add    (%ebx),%ah
    1a92:	00 03                	add    %al,(%ebx)
    1a94:	28 05 00 00 0e a2    	sub    %al,0xa20e0000
    1a9a:	31 17                	xor    %edx,(%edi)
    1a9c:	00 00                	add    %al,(%eax)
    1a9e:	02 23                	add    (%ebx),%ah
    1aa0:	08 04 c1             	or     %al,(%ecx,%eax,8)
    1aa3:	1a 00                	sbb    (%eax),%al
    1aa5:	00 01                	add    %al,(%ecx)
    1aa7:	1f                   	pop    %ds
    1aa8:	54                   	push   %esp
    1aa9:	00 00                	add    %al,(%eax)
    1aab:	4c                   	dec    %esp
    1aac:	21 00                	and    %eax,(%eax)
    1aae:	00 e9                	add    %ch,%cl
    1ab0:	1a 00                	sbb    (%eax),%al
    1ab2:	00 01                	add    %al,(%ecx)
    1ab4:	01 05 ef 1a 00 00    	add    %eax,0x1aef
    1aba:	01 06                	add    %eax,(%esi)
    1abc:	f5                   	cmc    
    1abd:	1a 00                	sbb    (%eax),%al
    1abf:	00 00                	add    %al,(%eax)
    1ac1:	07                   	pop    %es
    1ac2:	d9 1a                	fstps  (%edx)
    1ac4:	00 00                	add    %al,(%eax)
    1ac6:	01 38                	add    %edi,(%eax)
    1ac8:	00 00                	add    %al,(%eax)
    1aca:	00 01                	add    %al,(%ecx)
    1acc:	01 05 ef 1a 00 00    	add    %eax,0x1aef
    1ad2:	01 06                	add    %eax,(%esi)
    1ad4:	f5                   	cmc    
    1ad5:	1a 00                	sbb    (%eax),%al
    1ad7:	00 00                	add    %al,(%eax)
    1ad9:	08 01                	or     %al,(%ecx)
    1adb:	38 00                	cmp    %al,(%eax)
    1add:	00 00                	add    %al,(%eax)
    1adf:	01 01                	add    %eax,(%ecx)
    1ae1:	05 ef 1a 00 00       	add    $0x1aef,%eax
    1ae6:	01 00                	add    %eax,(%eax)
    1ae8:	00 0b                	add    %cl,(%ebx)
    1aea:	04 79                	add    $0x79,%al
    1aec:	1a 00                	sbb    (%eax),%al
    1aee:	00 09                	add    %cl,(%ecx)
    1af0:	04 79                	add    $0x79,%al
    1af2:	1a 00                	sbb    (%eax),%al
    1af4:	00 0b                	add    %cl,(%ebx)
    1af6:	04 fb                	add    $0xfb,%al
    1af8:	1a 00                	sbb    (%eax),%al
    1afa:	00 0c 79             	add    %cl,(%ecx,%edi,2)
    1afd:	1a 00                	sbb    (%eax),%al
    1aff:	00 11                	add    %dl,(%ecx)
    1b01:	38 11                	cmp    %dl,(%ecx)
    1b03:	00 00                	add    %al,(%eax)
    1b05:	0e                   	push   %cs
    1b06:	ac                   	lods   %ds:(%esi),%al
    1b07:	79 04                	jns    1b0d <_init-0x8046a67>
    1b09:	00 00                	add    %al,(%eax)
    1b0b:	11 f4                	adc    %esi,%esp
    1b0d:	bf 00 00 10 17       	mov    $0x17100000,%edi
    1b12:	c7 02 00 00 11 70    	movl   $0x70110000,(%edx)
    1b18:	7e 00                	jle    1b1a <_init-0x8046a5a>
    1b1a:	00 10                	add    %dl,(%eax)
    1b1c:	1f                   	pop    %ds
    1b1d:	21 1b                	and    %ebx,(%ebx)
    1b1f:	00 00                	add    %al,(%eax)
    1b21:	02 85 1b 00 00 70    	add    0x7000001b(%ebp),%al
    1b27:	7e 00                	jle    1b29 <_init-0x8046a4b>
    1b29:	00 80 10 1d 03 db    	add    %al,0xdb031d10(%eax)
    1b2f:	97                   	xchg   %eax,%edi
    1b30:	00 00                	add    %al,(%eax)
    1b32:	10 1e                	adc    %bl,(%esi)
    1b34:	85 1b                	test   %ebx,(%ebx)
    1b36:	00 00                	add    %al,(%eax)
    1b38:	02 23                	add    (%ebx),%ah
    1b3a:	00 23                	add    %ah,(%ebx)
    1b3c:	67 62 00             	addr16 bound %eax,(%bx,%si)
    1b3f:	00 21                	add    %ah,(%ecx)
    1b41:	1b 00                	sbb    (%eax),%eax
    1b43:	00 14 5f             	add    %dl,(%edi,%ebx,2)
    1b46:	1b 00                	sbb    (%eax),%eax
    1b48:	00 1f                	add    %bl,(%edi)
    1b4a:	54                   	push   %esp
    1b4b:	00 00                	add    %al,(%eax)
    1b4d:	95                   	xchg   %eax,%ebp
    1b4e:	1b 00                	sbb    (%eax),%eax
    1b50:	00 01                	add    %al,(%ecx)
    1b52:	01 05 9b 1b 00 00    	add    %eax,0x1b9b
    1b58:	01 06                	add    %eax,(%esi)
    1b5a:	a1 1b 00 00 00       	mov    0x1b,%eax
    1b5f:	21 76 1b             	and    %esi,0x1b(%esi)
    1b62:	00 00                	add    %al,(%eax)
    1b64:	67 62 00             	addr16 bound %eax,(%bx,%si)
    1b67:	00 01                	add    %al,(%ecx)
    1b69:	01 05 9b 1b 00 00    	add    %eax,0x1b9b
    1b6f:	01 06                	add    %eax,(%esi)
    1b71:	a1 1b 00 00 00       	mov    0x1b,%eax
    1b76:	22 67 62             	and    0x62(%edi),%ah
    1b79:	00 00                	add    %al,(%eax)
    1b7b:	01 01                	add    %eax,(%ecx)
    1b7d:	05 9b 1b 00 00       	add    $0x1b9b,%eax
    1b82:	01 00                	add    %eax,(%eax)
    1b84:	00 0d 95 1b 00 00    	add    %cl,0x1b95
    1b8a:	7e 03                	jle    1b8f <_init-0x80469e5>
    1b8c:	00 00                	add    %al,(%eax)
    1b8e:	0e                   	push   %cs
    1b8f:	97                   	xchg   %eax,%edi
    1b90:	02 00                	add    (%eax),%al
    1b92:	00 1f                	add    %bl,(%edi)
    1b94:	00 0b                	add    %cl,(%ebx)
    1b96:	04 21                	add    $0x21,%al
    1b98:	1b 00                	sbb    (%eax),%eax
    1b9a:	00 09                	add    %cl,(%ecx)
    1b9c:	04 21                	add    $0x21,%al
    1b9e:	1b 00                	sbb    (%eax),%eax
    1ba0:	00 0b                	add    %cl,(%ebx)
    1ba2:	04 a7                	add    $0xa7,%al
    1ba4:	1b 00                	sbb    (%eax),%eax
    1ba6:	00 0c 21             	add    %cl,(%ecx,1)
    1ba9:	1b 00                	sbb    (%eax),%eax
    1bab:	00 11                	add    %dl,(%ecx)
    1bad:	72 7e                	jb     1c2d <_init-0x8046947>
    1baf:	00 00                	add    %al,(%eax)
    1bb1:	11 32                	adc    %esi,(%edx)
    1bb3:	21 1b                	and    %ebx,(%ebx)
    1bb5:	00 00                	add    %al,(%eax)
    1bb7:	02 27                	add    (%edi),%ah
    1bb9:	1c 00                	sbb    $0x0,%al
    1bbb:	00 77 5c             	add    %dh,0x5c(%edi)
    1bbe:	00 00                	add    %al,(%eax)
    1bc0:	08 12                	or     %dl,(%edx)
    1bc2:	1b 03                	sbb    (%ebx),%eax
    1bc4:	67 38 00             	addr16 cmp %al,(%bx,%si)
    1bc7:	00 12                	add    %dl,(%edx)
    1bc9:	1c 67                	sbb    $0x67,%al
    1bcb:	04 00                	add    $0x0,%al
    1bcd:	00 02                	add    %al,(%edx)
    1bcf:	23 00                	and    (%eax),%eax
    1bd1:	03 ef                	add    %edi,%ebp
    1bd3:	34 00                	xor    $0x0,%al
    1bd5:	00 12                	add    %dl,(%edx)
    1bd7:	1d c7 02 00 00       	sbb    $0x2c7,%eax
    1bdc:	02 23                	add    (%ebx),%ah
    1bde:	04 04                	add    $0x4,%al
    1be0:	ff 1b                	lcall  *(%ebx)
    1be2:	00 00                	add    %al,(%eax)
    1be4:	01 1f                	add    %ebx,(%edi)
    1be6:	54                   	push   %esp
    1be7:	00 00                	add    %al,(%eax)
    1be9:	58                   	pop    %eax
    1bea:	63 00                	arpl   %ax,(%eax)
    1bec:	00 27                	add    %ah,(%edi)
    1bee:	1c 00                	sbb    $0x0,%al
    1bf0:	00 01                	add    %al,(%ecx)
    1bf2:	01 05 2d 1c 00 00    	add    %eax,0x1c2d
    1bf8:	01 06                	add    %eax,(%esi)
    1bfa:	33 1c 00             	xor    (%eax,%eax,1),%ebx
    1bfd:	00 00                	add    %al,(%eax)
    1bff:	07                   	pop    %es
    1c00:	17                   	pop    %ss
    1c01:	1c 00                	sbb    $0x0,%al
    1c03:	00 01                	add    %al,(%ecx)
    1c05:	77 5c                	ja     1c63 <_init-0x8046911>
    1c07:	00 00                	add    %al,(%eax)
    1c09:	01 01                	add    %eax,(%ecx)
    1c0b:	05 2d 1c 00 00       	add    $0x1c2d,%eax
    1c10:	01 06                	add    %eax,(%esi)
    1c12:	33 1c 00             	xor    (%eax,%eax,1),%ebx
    1c15:	00 00                	add    %al,(%eax)
    1c17:	08 01                	or     %al,(%ecx)
    1c19:	77 5c                	ja     1c77 <_init-0x80468fd>
    1c1b:	00 00                	add    %al,(%eax)
    1c1d:	01 01                	add    %eax,(%ecx)
    1c1f:	05 2d 1c 00 00       	add    $0x1c2d,%eax
    1c24:	01 00                	add    %eax,(%eax)
    1c26:	00 0b                	add    %cl,(%ebx)
    1c28:	04 b7                	add    $0xb7,%al
    1c2a:	1b 00                	sbb    (%eax),%eax
    1c2c:	00 09                	add    %cl,(%ecx)
    1c2e:	04 b7                	add    $0xb7,%al
    1c30:	1b 00                	sbb    (%eax),%eax
    1c32:	00 0b                	add    %cl,(%ebx)
    1c34:	04 39                	add    $0x39,%al
    1c36:	1c 00                	sbb    $0x0,%al
    1c38:	00 0c b7             	add    %cl,(%edi,%esi,4)
    1c3b:	1b 00                	sbb    (%eax),%eax
    1c3d:	00 11                	add    %dl,(%ecx)
    1c3f:	56                   	push   %esi
    1c40:	b4 00                	mov    $0x0,%ah
    1c42:	00 12                	add    %dl,(%edx)
    1c44:	23 49 1c             	and    0x1c(%ecx),%ecx
    1c47:	00 00                	add    %al,(%eax)
    1c49:	09 04 4f             	or     %eax,(%edi,%ecx,2)
    1c4c:	1c 00                	sbb    $0x0,%al
    1c4e:	00 0f                	add    %cl,(%edi)
    1c50:	33 7a 00             	xor    0x0(%edx),%edi
    1c53:	00 01                	add    %al,(%ecx)
    1c55:	02 27                	add    (%edi),%ah
    1c57:	1d 00 00 9f a3       	sbb    $0xa39f0000,%eax
    1c5c:	00 00                	add    %al,(%eax)
    1c5e:	24 12                	and    $0x12,%al
    1c60:	2a 03                	sub    (%ebx),%al
    1c62:	3c 25                	cmp    $0x25,%al
    1c64:	00 00                	add    %al,(%eax)
    1c66:	12 2b                	adc    (%ebx),%ch
    1c68:	c7 02 00 00 02 23    	movl   $0x23020000,(%edx)
    1c6e:	00 03                	add    %al,(%ebx)
    1c70:	c9                   	leave  
    1c71:	13 00                	adc    (%eax),%eax
    1c73:	00 12                	add    %dl,(%edx)
    1c75:	2c c7                	sub    $0xc7,%al
    1c77:	02 00                	add    (%eax),%al
    1c79:	00 02                	add    %al,(%edx)
    1c7b:	23 04 03             	and    (%ebx,%eax,1),%eax
    1c7e:	a6                   	cmpsb  %es:(%edi),%ds:(%esi)
    1c7f:	33 00                	xor    (%eax),%eax
    1c81:	00 12                	add    %dl,(%edx)
    1c83:	2d 31 18 00 00       	sub    $0x1831,%eax
    1c88:	02 23                	add    (%ebx),%ah
    1c8a:	08 03                	or     %al,(%ebx)
    1c8c:	47                   	inc    %edi
    1c8d:	41                   	inc    %ecx
    1c8e:	00 00                	add    %al,(%eax)
    1c90:	12 2e                	adc    (%esi),%ch
    1c92:	c7 02 00 00 02 23    	movl   $0x23020000,(%edx)
    1c98:	0c 03                	or     $0x3,%al
    1c9a:	53                   	push   %ebx
    1c9b:	84 00                	test   %al,(%eax)
    1c9d:	00 12                	add    %dl,(%edx)
    1c9f:	2f                   	das    
    1ca0:	c7 02 00 00 02 23    	movl   $0x23020000,(%edx)
    1ca6:	10 03                	adc    %al,(%ebx)
    1ca8:	70 89                	jo     1c33 <_init-0x8046941>
    1caa:	00 00                	add    %al,(%eax)
    1cac:	12 30                	adc    (%eax),%dh
    1cae:	2e 03 00             	add    %cs:(%eax),%eax
    1cb1:	00 02                	add    %al,(%edx)
    1cb3:	23 14 03             	and    (%ebx,%eax,1),%edx
    1cb6:	40                   	inc    %eax
    1cb7:	c3                   	ret    
    1cb8:	00 00                	add    %al,(%eax)
    1cba:	12 31                	adc    (%ecx),%dh
    1cbc:	c7 02 00 00 02 23    	movl   $0x23020000,(%edx)
    1cc2:	18 03                	sbb    %al,(%ebx)
    1cc4:	b5 5b                	mov    $0x5b,%ch
    1cc6:	00 00                	add    %al,(%eax)
    1cc8:	12 32                	adc    (%edx),%dh
    1cca:	21 03                	and    %eax,(%ebx)
    1ccc:	00 00                	add    %al,(%eax)
    1cce:	02 23                	add    (%ebx),%ah
    1cd0:	1c 03                	sbb    $0x3,%al
    1cd2:	d5 04                	aad    $0x4
    1cd4:	00 00                	add    %al,(%eax)
    1cd6:	12 33                	adc    (%ebx),%dh
    1cd8:	2e 03 00             	add    %cs:(%eax),%eax
    1cdb:	00 02                	add    %al,(%edx)
    1cdd:	23 20                	and    (%eax),%esp
    1cdf:	04 ff                	add    $0xff,%al
    1ce1:	1c 00                	sbb    $0x0,%al
    1ce3:	00 01                	add    %al,(%ecx)
    1ce5:	1f                   	pop    %ds
    1ce6:	54                   	push   %esp
    1ce7:	00 00                	add    %al,(%eax)
    1ce9:	07                   	pop    %es
    1cea:	36 00 00             	add    %al,%ss:(%eax)
    1ced:	27                   	daa    
    1cee:	1d 00 00 01 01       	sbb    $0x1010000,%eax
    1cf3:	05 2d 1d 00 00       	add    $0x1d2d,%eax
    1cf8:	01 06                	add    %eax,(%esi)
    1cfa:	33 1d 00 00 00 07    	xor    0x7000000,%ebx
    1d00:	17                   	pop    %ss
    1d01:	1d 00 00 01 9f       	sbb    $0x9f010000,%eax
    1d06:	a3 00 00 01 01       	mov    %eax,0x1010000
    1d0b:	05 2d 1d 00 00       	add    $0x1d2d,%eax
    1d10:	01 06                	add    %eax,(%esi)
    1d12:	33 1d 00 00 00 08    	xor    0x8000000,%ebx
    1d18:	01 9f a3 00 00 01    	add    %ebx,0x10000a3(%edi)
    1d1e:	01 05 2d 1d 00 00    	add    %eax,0x1d2d
    1d24:	01 00                	add    %eax,(%eax)
    1d26:	00 0b                	add    %cl,(%ebx)
    1d28:	04 55                	add    $0x55,%al
    1d2a:	1c 00                	sbb    $0x0,%al
    1d2c:	00 09                	add    %cl,(%ecx)
    1d2e:	04 55                	add    $0x55,%al
    1d30:	1c 00                	sbb    $0x0,%al
    1d32:	00 0b                	add    %cl,(%ebx)
    1d34:	04 39                	add    $0x39,%al
    1d36:	1d 00 00 0c 55       	sbb    $0x550c0000,%eax
    1d3b:	1c 00                	sbb    $0x0,%al
    1d3d:	00 11                	add    %dl,(%ecx)
    1d3f:	0f 90 00             	seto   (%eax)
    1d42:	00 12                	add    %dl,(%edx)
    1d44:	34 55                	xor    $0x55,%al
    1d46:	1c 00                	sbb    $0x0,%al
    1d48:	00 11                	add    %dl,(%ecx)
    1d4a:	cd 46                	int    $0x46
    1d4c:	00 00                	add    %al,(%eax)
    1d4e:	12 3a                	adc    (%edx),%bh
    1d50:	e0 03                	loopne 1d55 <_init-0x804681f>
    1d52:	00 00                	add    %al,(%eax)
    1d54:	11 0e                	adc    %ecx,(%esi)
    1d56:	0c 00                	or     $0x0,%al
    1d58:	00 12                	add    %dl,(%edx)
    1d5a:	46                   	inc    %esi
    1d5b:	5f                   	pop    %edi
    1d5c:	1d 00 00 02 ed       	sbb    $0xed020000,%eax
    1d61:	1d 00 00 0e 0c       	sbb    $0xc0e0000,%eax
    1d66:	00 00                	add    %al,(%eax)
    1d68:	30 12                	xor    %dl,(%edx)
    1d6a:	40                   	inc    %eax
    1d6b:	03 85 22 00 00 12    	add    0x12000022(%ebp),%eax
    1d71:	41                   	inc    %ecx
    1d72:	b7 1b                	mov    $0x1b,%bh
    1d74:	00 00                	add    %al,(%eax)
    1d76:	02 23                	add    (%ebx),%ah
    1d78:	00 03                	add    %al,(%ebx)
    1d7a:	e5 b4                	in     $0xb4,%eax
    1d7c:	00 00                	add    %al,(%eax)
    1d7e:	12 42 3e             	adc    0x3e(%edx),%al
    1d81:	1c 00                	sbb    $0x0,%al
    1d83:	00 02                	add    %al,(%edx)
    1d85:	23 08                	and    (%eax),%ecx
    1d87:	03 d4                	add    %esp,%edx
    1d89:	a8 00                	test   $0x0,%al
    1d8b:	00 12                	add    %dl,(%edx)
    1d8d:	44                   	inc    %esp
    1d8e:	ed                   	in     (%dx),%eax
    1d8f:	1d 00 00 02 23       	sbb    $0x23020000,%eax
    1d94:	0c 03                	or     $0x3,%al
    1d96:	47                   	inc    %edi
    1d97:	47                   	inc    %edi
    1d98:	00 00                	add    %al,(%eax)
    1d9a:	12 45 49             	adc    0x49(%ebp),%al
    1d9d:	1d 00 00 02 23       	sbb    $0x23020000,%eax
    1da2:	28 23                	sub    %ah,(%ebx)
    1da4:	6c                   	insb   (%dx),%es:(%edi)
    1da5:	62 00                	bound  %eax,(%eax)
    1da7:	00 5f 1d             	add    %bl,0x1d(%edi)
    1daa:	00 00                	add    %al,(%eax)
    1dac:	14 c7                	adc    $0xc7,%al
    1dae:	1d 00 00 1f 54       	sbb    $0x541f0000,%eax
    1db3:	00 00                	add    %al,(%eax)
    1db5:	fd                   	std    
    1db6:	1d 00 00 01 01       	sbb    $0x1010000,%eax
    1dbb:	05 03 1e 00 00       	add    $0x1e03,%eax
    1dc0:	01 06                	add    %eax,(%esi)
    1dc2:	09 1e                	or     %ebx,(%esi)
    1dc4:	00 00                	add    %al,(%eax)
    1dc6:	00 21                	add    %ah,(%ecx)
    1dc8:	de 1d 00 00 6c 62    	ficomp 0x626c0000
    1dce:	00 00                	add    %al,(%eax)
    1dd0:	01 01                	add    %eax,(%ecx)
    1dd2:	05 03 1e 00 00       	add    $0x1e03,%eax
    1dd7:	01 06                	add    %eax,(%esi)
    1dd9:	09 1e                	or     %ebx,(%esi)
    1ddb:	00 00                	add    %al,(%eax)
    1ddd:	00 22                	add    %ah,(%edx)
    1ddf:	6c                   	insb   (%dx),%es:(%edi)
    1de0:	62 00                	bound  %eax,(%eax)
    1de2:	00 01                	add    %al,(%ecx)
    1de4:	01 05 03 1e 00 00    	add    %eax,0x1e03
    1dea:	01 00                	add    %eax,(%eax)
    1dec:	00 0d fd 1d 00 00    	add    %cl,0x1dfd
    1df2:	cf                   	iret   
    1df3:	01 00                	add    %eax,(%eax)
    1df5:	00 0e                	add    %cl,(%esi)
    1df7:	97                   	xchg   %eax,%edi
    1df8:	02 00                	add    (%eax),%al
    1dfa:	00 1b                	add    %bl,(%ebx)
    1dfc:	00 0b                	add    %cl,(%ebx)
    1dfe:	04 5f                	add    $0x5f,%al
    1e00:	1d 00 00 09 04       	sbb    $0x4090000,%eax
    1e05:	5f                   	pop    %edi
    1e06:	1d 00 00 0b 04       	sbb    $0x40b0000,%eax
    1e0b:	0f 1e                	(bad)  
    1e0d:	00 00                	add    %al,(%eax)
    1e0f:	0c 5f                	or     $0x5f,%al
    1e11:	1d 00 00 11 70       	sbb    $0x70110000,%eax
    1e16:	99                   	cltd   
    1e17:	00 00                	add    %al,(%eax)
    1e19:	12 4d 1f             	adc    0x1f(%ebp),%cl
    1e1c:	1e                   	push   %ds
    1e1d:	00 00                	add    %al,(%eax)
    1e1f:	02 83 1e 00 00 70    	add    0x7000001e(%ebx),%al
    1e25:	99                   	cltd   
    1e26:	00 00                	add    %al,(%eax)
    1e28:	04 12                	add    $0x12,%al
    1e2a:	4b                   	dec    %ebx
    1e2b:	03 f0                	add    %eax,%esi
    1e2d:	a4                   	movsb  %ds:(%esi),%es:(%edi)
    1e2e:	00 00                	add    %al,(%eax)
    1e30:	12 4c c7 02          	adc    0x2(%edi,%eax,8),%cl
    1e34:	00 00                	add    %al,(%eax)
    1e36:	02 23                	add    (%ebx),%ah
    1e38:	00 23                	add    %ah,(%ebx)
    1e3a:	71 62                	jno    1e9e <_init-0x80466d6>
    1e3c:	00 00                	add    %al,(%eax)
    1e3e:	1f                   	pop    %ds
    1e3f:	1e                   	push   %ds
    1e40:	00 00                	add    %al,(%eax)
    1e42:	14 5d                	adc    $0x5d,%al
    1e44:	1e                   	push   %ds
    1e45:	00 00                	add    %al,(%eax)
    1e47:	1f                   	pop    %ds
    1e48:	54                   	push   %esp
    1e49:	00 00                	add    %al,(%eax)
    1e4b:	83 1e 00             	sbbl   $0x0,(%esi)
    1e4e:	00 01                	add    %al,(%ecx)
    1e50:	01 05 89 1e 00 00    	add    %eax,0x1e89
    1e56:	01 06                	add    %eax,(%esi)
    1e58:	8f 1e                	popl   (%esi)
    1e5a:	00 00                	add    %al,(%eax)
    1e5c:	00 21                	add    %ah,(%ecx)
    1e5e:	74 1e                	je     1e7e <_init-0x80466f6>
    1e60:	00 00                	add    %al,(%eax)
    1e62:	71 62                	jno    1ec6 <_init-0x80466ae>
    1e64:	00 00                	add    %al,(%eax)
    1e66:	01 01                	add    %eax,(%ecx)
    1e68:	05 89 1e 00 00       	add    $0x1e89,%eax
    1e6d:	01 06                	add    %eax,(%esi)
    1e6f:	8f 1e                	popl   (%esi)
    1e71:	00 00                	add    %al,(%eax)
    1e73:	00 22                	add    %ah,(%edx)
    1e75:	71 62                	jno    1ed9 <_init-0x804669b>
    1e77:	00 00                	add    %al,(%eax)
    1e79:	01 01                	add    %eax,(%ecx)
    1e7b:	05 89 1e 00 00       	add    $0x1e89,%eax
    1e80:	01 00                	add    %eax,(%eax)
    1e82:	00 0b                	add    %cl,(%ebx)
    1e84:	04 1f                	add    $0x1f,%al
    1e86:	1e                   	push   %ds
    1e87:	00 00                	add    %al,(%eax)
    1e89:	09 04 1f             	or     %eax,(%edi,%ebx,1)
    1e8c:	1e                   	push   %ds
    1e8d:	00 00                	add    %al,(%eax)
    1e8f:	0b 04 95 1e 00 00 0c 	or     0xc00001e(,%edx,4),%eax
    1e96:	1f                   	pop    %ds
    1e97:	1e                   	push   %ds
    1e98:	00 00                	add    %al,(%eax)
    1e9a:	11 ba 8e 00 00 12    	adc    %edi,0x1200008e(%edx)
    1ea0:	50                   	push   %eax
    1ea1:	39 03                	cmp    %eax,(%ebx)
    1ea3:	00 00                	add    %al,(%eax)
    1ea5:	11 d5                	adc    %edx,%ebp
    1ea7:	62 00                	bound  %eax,(%eax)
    1ea9:	00 12                	add    %dl,(%edx)
    1eab:	5d                   	pop    %ebp
    1eac:	b0 1e                	mov    $0x1e,%al
    1eae:	00 00                	add    %al,(%eax)
    1eb0:	02 4c 1f 00          	add    0x0(%edi,%ebx,1),%cl
    1eb4:	00 d5                	add    %dl,%ch
    1eb6:	62 00                	bound  %eax,(%eax)
    1eb8:	00 18                	add    %bl,(%eax)
    1eba:	12 57 03             	adc    0x3(%edi),%dl
    1ebd:	2a 1a                	sub    (%edx),%bl
    1ebf:	00 00                	add    %al,(%eax)
    1ec1:	12 58 c7             	adc    0xffffffc7(%eax),%bl
    1ec4:	02 00                	add    (%eax),%al
    1ec6:	00 02                	add    %al,(%edx)
    1ec8:	23 00                	and    (%eax),%eax
    1eca:	03 39                	add    (%ecx),%edi
    1ecc:	4d                   	dec    %ebp
    1ecd:	00 00                	add    %al,(%eax)
    1ecf:	12 59 c7             	adc    0xffffffc7(%ecx),%bl
    1ed2:	02 00                	add    (%eax),%al
    1ed4:	00 02                	add    %al,(%edx)
    1ed6:	23 04 03             	and    (%ebx,%eax,1),%eax
    1ed9:	34 57                	xor    $0x57,%al
    1edb:	00 00                	add    %al,(%eax)
    1edd:	12 5a 3e             	adc    0x3e(%edx),%bl
    1ee0:	1c 00                	sbb    $0x0,%al
    1ee2:	00 02                	add    %al,(%edx)
    1ee4:	23 08                	and    (%eax),%ecx
    1ee6:	03 90 2c 00 00 12    	add    0x1200002c(%eax),%edx
    1eec:	5b                   	pop    %ebx
    1eed:	c7 02 00 00 02 23    	movl   $0x23020000,(%edx)
    1ef3:	0c 03                	or     $0x3,%al
    1ef5:	05 0c 00 00 12       	add    $0x1200000c,%eax
    1efa:	5c                   	pop    %esp
    1efb:	b7 1b                	mov    $0x1b,%bh
    1efd:	00 00                	add    %al,(%eax)
    1eff:	02 23                	add    (%ebx),%ah
    1f01:	10 23                	adc    %ah,(%ebx)
    1f03:	76 62                	jbe    1f67 <_init-0x804660d>
    1f05:	00 00                	add    %al,(%eax)
    1f07:	b0 1e                	mov    $0x1e,%al
    1f09:	00 00                	add    %al,(%eax)
    1f0b:	14 26                	adc    $0x26,%al
    1f0d:	1f                   	pop    %ds
    1f0e:	00 00                	add    %al,(%eax)
    1f10:	1f                   	pop    %ds
    1f11:	54                   	push   %esp
    1f12:	00 00                	add    %al,(%eax)
    1f14:	4c                   	dec    %esp
    1f15:	1f                   	pop    %ds
    1f16:	00 00                	add    %al,(%eax)
    1f18:	01 01                	add    %eax,(%ecx)
    1f1a:	05 52 1f 00 00       	add    $0x1f52,%eax
    1f1f:	01 06                	add    %eax,(%esi)
    1f21:	58                   	pop    %eax
    1f22:	1f                   	pop    %ds
    1f23:	00 00                	add    %al,(%eax)
    1f25:	00 21                	add    %ah,(%ecx)
    1f27:	3d 1f 00 00 76       	cmp    $0x7600001f,%eax
    1f2c:	62 00                	bound  %eax,(%eax)
    1f2e:	00 01                	add    %al,(%ecx)
    1f30:	01 05 52 1f 00 00    	add    %eax,0x1f52
    1f36:	01 06                	add    %eax,(%esi)
    1f38:	58                   	pop    %eax
    1f39:	1f                   	pop    %ds
    1f3a:	00 00                	add    %al,(%eax)
    1f3c:	00 22                	add    %ah,(%edx)
    1f3e:	76 62                	jbe    1fa2 <_init-0x80465d2>
    1f40:	00 00                	add    %al,(%eax)
    1f42:	01 01                	add    %eax,(%ecx)
    1f44:	05 52 1f 00 00       	add    $0x1f52,%eax
    1f49:	01 00                	add    %eax,(%eax)
    1f4b:	00 0b                	add    %cl,(%ebx)
    1f4d:	04 b0                	add    $0xb0,%al
    1f4f:	1e                   	push   %ds
    1f50:	00 00                	add    %al,(%eax)
    1f52:	09 04 b0             	or     %eax,(%eax,%esi,4)
    1f55:	1e                   	push   %ds
    1f56:	00 00                	add    %al,(%eax)
    1f58:	0b 04 5e             	or     (%esi,%ebx,2),%eax
    1f5b:	1f                   	pop    %ds
    1f5c:	00 00                	add    %al,(%eax)
    1f5e:	0c b0                	or     $0xb0,%al
    1f60:	1e                   	push   %ds
    1f61:	00 00                	add    %al,(%eax)
    1f63:	11 b9 57 00 00 12    	adc    %edi,0x12000057(%ecx)
    1f69:	64 6e                	outsb  %fs:(%esi),(%dx)
    1f6b:	1f                   	pop    %ds
    1f6c:	00 00                	add    %al,(%eax)
    1f6e:	02 d2                	add    %dl,%dl
    1f70:	1f                   	pop    %ds
    1f71:	00 00                	add    %al,(%eax)
    1f73:	b9 57 00 00 04       	mov    $0x4000057,%ecx
    1f78:	12 62 03             	adc    0x3(%edx),%ah
    1f7b:	56                   	push   %esi
    1f7c:	c9                   	leave  
    1f7d:	00 00                	add    %al,(%eax)
    1f7f:	12 63 c7             	adc    0xffffffc7(%ebx),%ah
    1f82:	02 00                	add    (%eax),%al
    1f84:	00 02                	add    %al,(%edx)
    1f86:	23 00                	and    (%eax),%eax
    1f88:	23 7b 62             	and    0x62(%ebx),%edi
    1f8b:	00 00                	add    %al,(%eax)
    1f8d:	6e                   	outsb  %ds:(%esi),(%dx)
    1f8e:	1f                   	pop    %ds
    1f8f:	00 00                	add    %al,(%eax)
    1f91:	14 ac                	adc    $0xac,%al
    1f93:	1f                   	pop    %ds
    1f94:	00 00                	add    %al,(%eax)
    1f96:	1f                   	pop    %ds
    1f97:	54                   	push   %esp
    1f98:	00 00                	add    %al,(%eax)
    1f9a:	d2 1f                	rcrb   %cl,(%edi)
    1f9c:	00 00                	add    %al,(%eax)
    1f9e:	01 01                	add    %eax,(%ecx)
    1fa0:	05 d8 1f 00 00       	add    $0x1fd8,%eax
    1fa5:	01 06                	add    %eax,(%esi)
    1fa7:	de 1f                	ficomp (%edi)
    1fa9:	00 00                	add    %al,(%eax)
    1fab:	00 21                	add    %ah,(%ecx)
    1fad:	c3                   	ret    
    1fae:	1f                   	pop    %ds
    1faf:	00 00                	add    %al,(%eax)
    1fb1:	7b 62                	jnp    2015 <_init-0x804655f>
    1fb3:	00 00                	add    %al,(%eax)
    1fb5:	01 01                	add    %eax,(%ecx)
    1fb7:	05 d8 1f 00 00       	add    $0x1fd8,%eax
    1fbc:	01 06                	add    %eax,(%esi)
    1fbe:	de 1f                	ficomp (%edi)
    1fc0:	00 00                	add    %al,(%eax)
    1fc2:	00 22                	add    %ah,(%edx)
    1fc4:	7b 62                	jnp    2028 <_init-0x804654c>
    1fc6:	00 00                	add    %al,(%eax)
    1fc8:	01 01                	add    %eax,(%ecx)
    1fca:	05 d8 1f 00 00       	add    $0x1fd8,%eax
    1fcf:	01 00                	add    %eax,(%eax)
    1fd1:	00 0b                	add    %cl,(%ebx)
    1fd3:	04 6e                	add    $0x6e,%al
    1fd5:	1f                   	pop    %ds
    1fd6:	00 00                	add    %al,(%eax)
    1fd8:	09 04 6e             	or     %eax,(%esi,%ebp,2)
    1fdb:	1f                   	pop    %ds
    1fdc:	00 00                	add    %al,(%eax)
    1fde:	0b 04 e4             	or     (%esp,8),%eax
    1fe1:	1f                   	pop    %ds
    1fe2:	00 00                	add    %al,(%eax)
    1fe4:	0c 6e                	or     $0x6e,%al
    1fe6:	1f                   	pop    %ds
    1fe7:	00 00                	add    %al,(%eax)
    1fe9:	11 44 be 00          	adc    %eax,0x0(%esi,%edi,4)
    1fed:	00 12                	add    %dl,(%edx)
    1fef:	68 c7 02 00 00       	push   $0x2c7
    1ff4:	02 aa 20 00 00 e7    	add    0xe7000020(%edx),%ch
    1ffa:	2e 00 00             	add    %al,%cs:(%eax)
    1ffd:	20 12                	and    %dl,(%edx)
    1fff:	6e                   	outsb  %ds:(%esi),(%dx)
    2000:	03 35 70 00 00 12    	add    0x12000070,%esi
    2006:	6f                   	outsl  %ds:(%esi),(%dx)
    2007:	b7 1b                	mov    $0x1b,%bh
    2009:	00 00                	add    %al,(%eax)
    200b:	02 23                	add    (%ebx),%ah
    200d:	00 03                	add    %al,(%ebx)
    200f:	90                   	nop    
    2010:	64 00 00             	add    %al,%fs:(%eax)
    2013:	12 70 c7             	adc    0xffffffc7(%eax),%dh
    2016:	02 00                	add    (%eax),%al
    2018:	00 02                	add    %al,(%edx)
    201a:	23 08                	and    (%eax),%ecx
    201c:	03 f9                	add    %ecx,%edi
    201e:	0b 00                	or     (%eax),%eax
    2020:	00 12                	add    %dl,(%edx)
    2022:	71 3e                	jno    2062 <_init-0x8046512>
    2024:	1c 00                	sbb    $0x0,%al
    2026:	00 02                	add    %al,(%edx)
    2028:	23 0c 03             	and    (%ebx,%eax,1),%ecx
    202b:	ca c8 00             	lret   $0xc8
    202e:	00 12                	add    %dl,(%edx)
    2030:	72 3e                	jb     2070 <_init-0x8046504>
    2032:	1c 00                	sbb    $0x0,%al
    2034:	00 02                	add    %al,(%edx)
    2036:	23 10                	and    (%eax),%edx
    2038:	03 ed                	add    %ebp,%ebp
    203a:	71 00                	jno    203c <_init-0x8046538>
    203c:	00 12                	add    %dl,(%edx)
    203e:	73 3e                	jae    207e <_init-0x80464f6>
    2040:	1c 00                	sbb    $0x0,%al
    2042:	00 02                	add    %al,(%edx)
    2044:	23 14 03             	and    (%ebx,%eax,1),%edx
    2047:	98                   	cwtl   
    2048:	40                   	inc    %eax
    2049:	00 00                	add    %al,(%eax)
    204b:	12 74 c7 02          	adc    0x2(%edi,%eax,8),%dh
    204f:	00 00                	add    %al,(%eax)
    2051:	02 23                	add    (%ebx),%ah
    2053:	18 03                	sbb    %al,(%ebx)
    2055:	c1 be 00 00 12 75 c7 	sarl   $0xc7,0x75120000(%esi)
    205c:	02 00                	add    (%eax),%al
    205e:	00 02                	add    %al,(%edx)
    2060:	23 1c 04             	and    (%esp,%eax,1),%ebx
    2063:	82                   	(bad)  
    2064:	20 00                	and    %al,(%eax)
    2066:	00 01                	add    %al,(%ecx)
    2068:	1f                   	pop    %ds
    2069:	54                   	push   %esp
    206a:	00 00                	add    %al,(%eax)
    206c:	66 06                	pushw  %es
    206e:	00 00                	add    %al,(%eax)
    2070:	aa                   	stos   %al,%es:(%edi)
    2071:	20 00                	and    %al,(%eax)
    2073:	00 01                	add    %al,(%ecx)
    2075:	01 05 b0 20 00 00    	add    %eax,0x20b0
    207b:	01 06                	add    %eax,(%esi)
    207d:	b6 20                	mov    $0x20,%dh
    207f:	00 00                	add    %al,(%eax)
    2081:	00 07                	add    %al,(%edi)
    2083:	9a 20 00 00 01 e7 2e 	lcall  $0x2ee7,$0x1000020
    208a:	00 00                	add    %al,(%eax)
    208c:	01 01                	add    %eax,(%ecx)
    208e:	05 b0 20 00 00       	add    $0x20b0,%eax
    2093:	01 06                	add    %eax,(%esi)
    2095:	b6 20                	mov    $0x20,%dh
    2097:	00 00                	add    %al,(%eax)
    2099:	00 08                	add    %cl,(%eax)
    209b:	01 e7                	add    %esp,%edi
    209d:	2e 00 00             	add    %al,%cs:(%eax)
    20a0:	01 01                	add    %eax,(%ecx)
    20a2:	05 b0 20 00 00       	add    $0x20b0,%eax
    20a7:	01 00                	add    %eax,(%eax)
    20a9:	00 0b                	add    %cl,(%ebx)
    20ab:	04 f4                	add    $0xf4,%al
    20ad:	1f                   	pop    %ds
    20ae:	00 00                	add    %al,(%eax)
    20b0:	09 04 f4             	or     %eax,(%esp,%esi,8)
    20b3:	1f                   	pop    %ds
    20b4:	00 00                	add    %al,(%eax)
    20b6:	0b 04 bc             	or     (%esp,%edi,4),%eax
    20b9:	20 00                	and    %al,(%eax)
    20bb:	00 0c f4             	add    %cl,(%esp,%esi,8)
    20be:	1f                   	pop    %ds
    20bf:	00 00                	add    %al,(%eax)
    20c1:	11 e8                	adc    %ebp,%eax
    20c3:	2e 00 00             	add    %al,%cs:(%eax)
    20c6:	12 76 f4             	adc    0xfffffff4(%esi),%dh
    20c9:	1f                   	pop    %ds
    20ca:	00 00                	add    %al,(%eax)
    20cc:	11 f0                	adc    %esi,%eax
    20ce:	25 00 00 12 7e       	and    $0x7e120000,%eax
    20d3:	d7                   	xlat   %ds:(%ebx)
    20d4:	20 00                	and    %al,(%eax)
    20d6:	00 02                	add    %al,(%edx)
    20d8:	49                   	dec    %ecx
    20d9:	21 00                	and    %eax,(%eax)
    20db:	00 f0                	add    %dh,%al
    20dd:	25 00 00 08 12       	and    $0x12080000,%eax
    20e2:	7b 03                	jnp    20e7 <_init-0x804648d>
    20e4:	c6 38 00             	movb   $0x0,(%eax)
    20e7:	00 12                	add    %dl,(%edx)
    20e9:	7c c7                	jl     20b2 <_init-0x80464c2>
    20eb:	02 00                	add    (%eax),%al
    20ed:	00 02                	add    %al,(%edx)
    20ef:	23 00                	and    (%eax),%eax
    20f1:	03 57 10             	add    0x10(%edi),%edx
    20f4:	00 00                	add    %al,(%eax)
    20f6:	12 7d c7             	adc    0xffffffc7(%ebp),%bh
    20f9:	02 00                	add    (%eax),%al
    20fb:	00 02                	add    %al,(%edx)
    20fd:	23 04 23             	and    (%ebx,1),%eax
    2100:	7d 15                	jge    2117 <_init-0x804645d>
    2102:	00 00                	add    %al,(%eax)
    2104:	d7                   	xlat   %ds:(%ebx)
    2105:	20 00                	and    %al,(%eax)
    2107:	00 14 23             	add    %dl,(%ebx,1)
    210a:	21 00                	and    %eax,(%eax)
    210c:	00 1f                	add    %bl,(%edi)
    210e:	54                   	push   %esp
    210f:	00 00                	add    %al,(%eax)
    2111:	49                   	dec    %ecx
    2112:	21 00                	and    %eax,(%eax)
    2114:	00 01                	add    %al,(%ecx)
    2116:	01 05 4f 21 00 00    	add    %eax,0x214f
    211c:	01 06                	add    %eax,(%esi)
    211e:	55                   	push   %ebp
    211f:	21 00                	and    %eax,(%eax)
    2121:	00 00                	add    %al,(%eax)
    2123:	21 3a                	and    %edi,(%edx)
    2125:	21 00                	and    %eax,(%eax)
    2127:	00 7d 15             	add    %bh,0x15(%ebp)
    212a:	00 00                	add    %al,(%eax)
    212c:	01 01                	add    %eax,(%ecx)
    212e:	05 4f 21 00 00       	add    $0x214f,%eax
    2133:	01 06                	add    %eax,(%esi)
    2135:	55                   	push   %ebp
    2136:	21 00                	and    %eax,(%eax)
    2138:	00 00                	add    %al,(%eax)
    213a:	22 7d 15             	and    0x15(%ebp),%bh
    213d:	00 00                	add    %al,(%eax)
    213f:	01 01                	add    %eax,(%ecx)
    2141:	05 4f 21 00 00       	add    $0x214f,%eax
    2146:	01 00                	add    %eax,(%eax)
    2148:	00 0b                	add    %cl,(%ebx)
    214a:	04 d7                	add    $0xd7,%al
    214c:	20 00                	and    %al,(%eax)
    214e:	00 09                	add    %cl,(%ecx)
    2150:	04 d7                	add    $0xd7,%al
    2152:	20 00                	and    %al,(%eax)
    2154:	00 0b                	add    %cl,(%ebx)
    2156:	04 5b                	add    $0x5b,%al
    2158:	21 00                	and    %eax,(%eax)
    215a:	00 0c d7             	add    %cl,(%edi,%edx,8)
    215d:	20 00                	and    %al,(%eax)
    215f:	00 11                	add    %dl,(%ecx)
    2161:	12 45 00             	adc    0x0(%ebp),%al
    2164:	00 12                	add    %dl,(%edx)
    2166:	83 6b 21 00          	subl   $0x0,0x21(%ebx)
    216a:	00 2a                	add    %ch,(%edx)
    216c:	c7 02 00 00 11 52    	movl   $0x52110000,(%edx)
    2172:	13 00                	adc    (%eax),%eax
    2174:	00 12                	add    %dl,(%edx)
    2176:	8b 7b 21             	mov    0x21(%ebx),%edi
    2179:	00 00                	add    %al,(%eax)
    217b:	02 09                	add    (%ecx),%cl
    217d:	22 00                	and    (%eax),%al
    217f:	00 52 13             	add    %dl,0x13(%edx)
    2182:	00 00                	add    %al,(%eax)
    2184:	14 12                	adc    $0x12,%al
    2186:	86 03                	xchg   %al,(%ebx)
    2188:	39 8e 00 00 12 87    	cmp    %ecx,0x87120000(%esi)
    218e:	b7 1b                	mov    $0x1b,%bh
    2190:	00 00                	add    %al,(%eax)
    2192:	02 23                	add    (%ebx),%ah
    2194:	00 03                	add    %al,(%ebx)
    2196:	15 22 00 00 12       	adc    $0x12000022,%eax
    219b:	88 c7                	mov    %al,%bh
    219d:	02 00                	add    (%eax),%al
    219f:	00 02                	add    %al,(%edx)
    21a1:	23 08                	and    (%eax),%ecx
    21a3:	03 c4                	add    %esp,%eax
    21a5:	25 00 00 12 89       	and    $0x89120000,%eax
    21aa:	c7 02 00 00 02 23    	movl   $0x23020000,(%edx)
    21b0:	0c 03                	or     $0x3,%al
    21b2:	38 c2                	cmp    %al,%dl
    21b4:	00 00                	add    %al,(%eax)
    21b6:	12 8a 3e 1c 00 00    	adc    0x1c3e(%edx),%cl
    21bc:	02 23                	add    (%ebx),%ah
    21be:	10 23                	adc    %ah,(%ebx)
    21c0:	56                   	push   %esi
    21c1:	65 00 00             	add    %al,%gs:(%eax)
    21c4:	7b 21                	jnp    21e7 <_init-0x804638d>
    21c6:	00 00                	add    %al,(%eax)
    21c8:	14 e3                	adc    $0xe3,%al
    21ca:	21 00                	and    %eax,(%eax)
    21cc:	00 1f                	add    %bl,(%edi)
    21ce:	54                   	push   %esp
    21cf:	00 00                	add    %al,(%eax)
    21d1:	09 22                	or     %esp,(%edx)
    21d3:	00 00                	add    %al,(%eax)
    21d5:	01 01                	add    %eax,(%ecx)
    21d7:	05 0f 22 00 00       	add    $0x220f,%eax
    21dc:	01 06                	add    %eax,(%esi)
    21de:	15 22 00 00 00       	adc    $0x22,%eax
    21e3:	21 fa                	and    %edi,%edx
    21e5:	21 00                	and    %eax,(%eax)
    21e7:	00 56 65             	add    %dl,0x65(%esi)
    21ea:	00 00                	add    %al,(%eax)
    21ec:	01 01                	add    %eax,(%ecx)
    21ee:	05 0f 22 00 00       	add    $0x220f,%eax
    21f3:	01 06                	add    %eax,(%esi)
    21f5:	15 22 00 00 00       	adc    $0x22,%eax
    21fa:	22 56 65             	and    0x65(%esi),%dl
    21fd:	00 00                	add    %al,(%eax)
    21ff:	01 01                	add    %eax,(%ecx)
    2201:	05 0f 22 00 00       	add    $0x220f,%eax
    2206:	01 00                	add    %eax,(%eax)
    2208:	00 0b                	add    %cl,(%ebx)
    220a:	04 7b                	add    $0x7b,%al
    220c:	21 00                	and    %eax,(%eax)
    220e:	00 09                	add    %cl,(%ecx)
    2210:	04 7b                	add    $0x7b,%al
    2212:	21 00                	and    %eax,(%eax)
    2214:	00 0b                	add    %cl,(%ebx)
    2216:	04 1b                	add    $0x1b,%al
    2218:	22 00                	and    (%eax),%al
    221a:	00 0c 7b             	add    %cl,(%ebx,%edi,2)
    221d:	21 00                	and    %eax,(%eax)
    221f:	00 11                	add    %dl,(%ecx)
    2221:	6b ae 00 00 12 90 2b 	imul   $0x2b,0x90120000(%esi),%ebp
    2228:	22 00                	and    (%eax),%al
    222a:	00 02                	add    %al,(%edx)
    222c:	8f 22                	popl   (%edx)
    222e:	00 00                	add    %al,(%eax)
    2230:	6b ae 00 00 04 12 8e 	imul   $0xffffff8e,0x12040000(%esi),%ebp
    2237:	03 57 10             	add    0x10(%edi),%edx
    223a:	00 00                	add    %al,(%eax)
    223c:	12 8f c7 02 00 00    	adc    0x2c7(%edi),%cl
    2242:	02 23                	add    (%ebx),%ah
    2244:	00 23                	add    %ah,(%ebx)
    2246:	fb                   	sti    
    2247:	46                   	inc    %esi
    2248:	00 00                	add    %al,(%eax)
    224a:	2b 22                	sub    (%edx),%esp
    224c:	00 00                	add    %al,(%eax)
    224e:	14 69                	adc    $0x69,%al
    2250:	22 00                	and    (%eax),%al
    2252:	00 1f                	add    %bl,(%edi)
    2254:	54                   	push   %esp
    2255:	00 00                	add    %al,(%eax)
    2257:	8f 22                	popl   (%edx)
    2259:	00 00                	add    %al,(%eax)
    225b:	01 01                	add    %eax,(%ecx)
    225d:	05 95 22 00 00       	add    $0x2295,%eax
    2262:	01 06                	add    %eax,(%esi)
    2264:	9b                   	fwait
    2265:	22 00                	and    (%eax),%al
    2267:	00 00                	add    %al,(%eax)
    2269:	21 80 22 00 00 fb    	and    %eax,0xfb000022(%eax)
    226f:	46                   	inc    %esi
    2270:	00 00                	add    %al,(%eax)
    2272:	01 01                	add    %eax,(%ecx)
    2274:	05 95 22 00 00       	add    $0x2295,%eax
    2279:	01 06                	add    %eax,(%esi)
    227b:	9b                   	fwait
    227c:	22 00                	and    (%eax),%al
    227e:	00 00                	add    %al,(%eax)
    2280:	22 fb                	and    %bl,%bh
    2282:	46                   	inc    %esi
    2283:	00 00                	add    %al,(%eax)
    2285:	01 01                	add    %eax,(%ecx)
    2287:	05 95 22 00 00       	add    $0x2295,%eax
    228c:	01 00                	add    %eax,(%eax)
    228e:	00 0b                	add    %cl,(%ebx)
    2290:	04 2b                	add    $0x2b,%al
    2292:	22 00                	and    (%eax),%al
    2294:	00 09                	add    %cl,(%ecx)
    2296:	04 2b                	add    $0x2b,%al
    2298:	22 00                	and    (%eax),%al
    229a:	00 0b                	add    %cl,(%ebx)
    229c:	04 a1                	add    $0xa1,%al
    229e:	22 00                	and    (%eax),%al
    22a0:	00 0c 2b             	add    %cl,(%ebx,%ebp,1)
    22a3:	22 00                	and    (%eax),%al
    22a5:	00 11                	add    %dl,(%ecx)
    22a7:	c7 89 00 00 12 96 7e 	movl   $0x37e,0x96120000(%ecx)
    22ae:	03 00 00 
    22b1:	02 3d 23 00 00 7f    	add    0x7f000023,%bh
    22b7:	0a 00                	or     (%eax),%al
    22b9:	00 10                	add    %dl,(%eax)
    22bb:	13 84 03 b5 0d 00 00 	adc    0xdb5(%ebx,%eax,1),%eax
    22c2:	13 85 1d 0e 00 00    	adc    0xe1d(%ebp),%eax
    22c8:	02 23                	add    (%ebx),%ah
    22ca:	00 03                	add    %al,(%ebx)
    22cc:	37                   	aaa    
    22cd:	07                   	pop    %es
    22ce:	00 00                	add    %al,(%eax)
    22d0:	13 86 21 03 00 00    	adc    0x321(%esi),%eax
    22d6:	02 23                	add    (%ebx),%ah
    22d8:	04 03                	add    $0x3,%al
    22da:	c7 5f 00 00 13 87 c7 	movl   $0xc7871300,0x0(%edi)
    22e1:	02 00                	add    (%eax),%al
